Archive member included to satisfy reference by file (symbol)

app/libapp.a(robot.c.obj)     CMakeFiles/MSPM0G3507_BASIC.elf.dir/empty.c.obj (RobotInit)
bsp/libbsp.a(bsp_init.c.obj)  app/libapp.a(robot.c.obj) (BSPInit)
bsp/libbsp.a(bsp_dwt.c.obj)   bsp/libbsp.a(bsp_init.c.obj) (DWT_Init)
bsp/libbsp.a(bsp_log.c.obj)   bsp/libbsp.a(bsp_init.c.obj) (BSPLogInit)
D:/tools/ti/mspm0_sdk_2_10_00_04/source/ti/driverlib/lib/gcc/m0p/mspm0g1x0x_g3x0x/driverlib.a(dl_adc12.o)
                              CMakeFiles/MSPM0G3507_BASIC.elf.dir/syscfg/ti_msp_dl_config.c.obj (DL_ADC12_setClockConfig)
D:/tools/ti/mspm0_sdk_2_10_00_04/source/ti/driverlib/lib/gcc/m0p/mspm0g1x0x_g3x0x/driverlib.a(dl_common.o)
                              CMakeFiles/MSPM0G3507_BASIC.elf.dir/syscfg/ti_msp_dl_config.c.obj (DL_Common_delayCycles)
D:/tools/ti/mspm0_sdk_2_10_00_04/source/ti/driverlib/lib/gcc/m0p/mspm0g1x0x_g3x0x/driverlib.a(dl_i2c.o)
                              CMakeFiles/MSPM0G3507_BASIC.elf.dir/syscfg/ti_msp_dl_config.c.obj (DL_I2C_setClockConfig)
D:/tools/ti/mspm0_sdk_2_10_00_04/source/ti/driverlib/lib/gcc/m0p/mspm0g1x0x_g3x0x/driverlib.a(dl_spi.o)
                              CMakeFiles/MSPM0G3507_BASIC.elf.dir/syscfg/ti_msp_dl_config.c.obj (DL_SPI_init)
D:/tools/ti/mspm0_sdk_2_10_00_04/source/ti/driverlib/lib/gcc/m0p/mspm0g1x0x_g3x0x/driverlib.a(dl_timer.o)
                              CMakeFiles/MSPM0G3507_BASIC.elf.dir/syscfg/ti_msp_dl_config.c.obj (DL_Timer_setClockConfig)
D:/tools/ti/mspm0_sdk_2_10_00_04/source/ti/driverlib/lib/gcc/m0p/mspm0g1x0x_g3x0x/driverlib.a(dl_uart.o)
                              CMakeFiles/MSPM0G3507_BASIC.elf.dir/syscfg/ti_msp_dl_config.c.obj (DL_UART_init)
D:/Program Files/STM32CubeCLT_1.21.0/GNU-tools-for-STM32/bin/../lib/gcc/arm-none-eabi/14.3.1/thumb/v6-m/nofp\libgcc.a(_udivsi3.o)
                              CMakeFiles/MSPM0G3507_BASIC.elf.dir/D_/tools/ti/mspm0_sdk_2_10_00_04/kernel/freertos/Source/portable/GCC/ARM_CM0/port.c.obj (__aeabi_uidiv)
D:/Program Files/STM32CubeCLT_1.21.0/GNU-tools-for-STM32/bin/../lib/gcc/arm-none-eabi/14.3.1/thumb/v6-m/nofp\libgcc.a(_dvmd_tls.o)
                              D:/Program Files/STM32CubeCLT_1.21.0/GNU-tools-for-STM32/bin/../lib/gcc/arm-none-eabi/14.3.1/thumb/v6-m/nofp\libgcc.a(_udivsi3.o) (__aeabi_idiv0)
D:/Program Files/STM32CubeCLT_1.21.0/GNU-tools-for-STM32/bin/../lib/gcc/arm-none-eabi/14.3.1/thumb/v6-m/nofp\libgcc.a(_arm_cmpsf2.o)
                              bsp/libbsp.a(bsp_log.c.obj) (__aeabi_fcmplt)
D:/Program Files/STM32CubeCLT_1.21.0/GNU-tools-for-STM32/bin/../lib/gcc/arm-none-eabi/14.3.1/thumb/v6-m/nofp\libgcc.a(_fixunssfsi.o)
                              bsp/libbsp.a(bsp_dwt.c.obj) (__aeabi_f2uiz)
D:/Program Files/STM32CubeCLT_1.21.0/GNU-tools-for-STM32/bin/../lib/gcc/arm-none-eabi/14.3.1/thumb/v6-m/nofp\libgcc.a(_fixunssfdi.o)
                              bsp/libbsp.a(bsp_dwt.c.obj) (__aeabi_f2ulz)
D:/Program Files/STM32CubeCLT_1.21.0/GNU-tools-for-STM32/bin/../lib/gcc/arm-none-eabi/14.3.1/thumb/v6-m/nofp\libgcc.a(divsf3.o)
                              bsp/libbsp.a(bsp_dwt.c.obj) (__aeabi_fdiv)
D:/Program Files/STM32CubeCLT_1.21.0/GNU-tools-for-STM32/bin/../lib/gcc/arm-none-eabi/14.3.1/thumb/v6-m/nofp\libgcc.a(eqsf2.o)
                              D:/Program Files/STM32CubeCLT_1.21.0/GNU-tools-for-STM32/bin/../lib/gcc/arm-none-eabi/14.3.1/thumb/v6-m/nofp\libgcc.a(_arm_cmpsf2.o) (__eqsf2)
D:/Program Files/STM32CubeCLT_1.21.0/GNU-tools-for-STM32/bin/../lib/gcc/arm-none-eabi/14.3.1/thumb/v6-m/nofp\libgcc.a(gesf2.o)
                              D:/Program Files/STM32CubeCLT_1.21.0/GNU-tools-for-STM32/bin/../lib/gcc/arm-none-eabi/14.3.1/thumb/v6-m/nofp\libgcc.a(_arm_cmpsf2.o) (__gesf2)
D:/Program Files/STM32CubeCLT_1.21.0/GNU-tools-for-STM32/bin/../lib/gcc/arm-none-eabi/14.3.1/thumb/v6-m/nofp\libgcc.a(lesf2.o)
                              D:/Program Files/STM32CubeCLT_1.21.0/GNU-tools-for-STM32/bin/../lib/gcc/arm-none-eabi/14.3.1/thumb/v6-m/nofp\libgcc.a(_arm_cmpsf2.o) (__lesf2)
D:/Program Files/STM32CubeCLT_1.21.0/GNU-tools-for-STM32/bin/../lib/gcc/arm-none-eabi/14.3.1/thumb/v6-m/nofp\libgcc.a(mulsf3.o)
                              bsp/libbsp.a(bsp_dwt.c.obj) (__aeabi_fmul)
D:/Program Files/STM32CubeCLT_1.21.0/GNU-tools-for-STM32/bin/../lib/gcc/arm-none-eabi/14.3.1/thumb/v6-m/nofp\libgcc.a(subsf3.o)
                              app/libapp.a(robot.c.obj) (__aeabi_fsub)
D:/Program Files/STM32CubeCLT_1.21.0/GNU-tools-for-STM32/bin/../lib/gcc/arm-none-eabi/14.3.1/thumb/v6-m/nofp\libgcc.a(fixsfsi.o)
                              bsp/libbsp.a(bsp_log.c.obj) (__aeabi_f2iz)
D:/Program Files/STM32CubeCLT_1.21.0/GNU-tools-for-STM32/bin/../lib/gcc/arm-none-eabi/14.3.1/thumb/v6-m/nofp\libgcc.a(floatsisf.o)
                              bsp/libbsp.a(bsp_log.c.obj) (__aeabi_i2f)
D:/Program Files/STM32CubeCLT_1.21.0/GNU-tools-for-STM32/bin/../lib/gcc/arm-none-eabi/14.3.1/thumb/v6-m/nofp\libgcc.a(floatunsisf.o)
                              bsp/libbsp.a(bsp_dwt.c.obj) (__aeabi_ui2f)
D:/Program Files/STM32CubeCLT_1.21.0/GNU-tools-for-STM32/bin/../lib/gcc/arm-none-eabi/14.3.1/thumb/v6-m/nofp\libgcc.a(divdf3.o)
                              bsp/libbsp.a(bsp_dwt.c.obj) (__aeabi_ddiv)
D:/Program Files/STM32CubeCLT_1.21.0/GNU-tools-for-STM32/bin/../lib/gcc/arm-none-eabi/14.3.1/thumb/v6-m/nofp\libgcc.a(muldf3.o)
                              D:/Program Files/STM32CubeCLT_1.21.0/GNU-tools-for-STM32/bin/../lib/gcc/arm-none-eabi/14.3.1/thumb/v6-m/nofp\libgcc.a(_fixunssfdi.o) (__aeabi_dmul)
D:/Program Files/STM32CubeCLT_1.21.0/GNU-tools-for-STM32/bin/../lib/gcc/arm-none-eabi/14.3.1/thumb/v6-m/nofp\libgcc.a(subdf3.o)
                              D:/Program Files/STM32CubeCLT_1.21.0/GNU-tools-for-STM32/bin/../lib/gcc/arm-none-eabi/14.3.1/thumb/v6-m/nofp\libgcc.a(_fixunssfdi.o) (__aeabi_dsub)
D:/Program Files/STM32CubeCLT_1.21.0/GNU-tools-for-STM32/bin/../lib/gcc/arm-none-eabi/14.3.1/thumb/v6-m/nofp\libgcc.a(floatunsidf.o)
                              bsp/libbsp.a(bsp_dwt.c.obj) (__aeabi_ui2d)
D:/Program Files/STM32CubeCLT_1.21.0/GNU-tools-for-STM32/bin/../lib/gcc/arm-none-eabi/14.3.1/thumb/v6-m/nofp\libgcc.a(extendsfdf2.o)
                              D:/Program Files/STM32CubeCLT_1.21.0/GNU-tools-for-STM32/bin/../lib/gcc/arm-none-eabi/14.3.1/thumb/v6-m/nofp\libgcc.a(_fixunssfdi.o) (__aeabi_f2d)
D:/Program Files/STM32CubeCLT_1.21.0/GNU-tools-for-STM32/bin/../lib/gcc/arm-none-eabi/14.3.1/thumb/v6-m/nofp\libgcc.a(_clzsi2.o)
                              D:/Program Files/STM32CubeCLT_1.21.0/GNU-tools-for-STM32/bin/../lib/gcc/arm-none-eabi/14.3.1/thumb/v6-m/nofp\libgcc.a(divsf3.o) (__clzsi2)
D:/Program Files/STM32CubeCLT_1.21.0/GNU-tools-for-STM32/bin/../lib/gcc/arm-none-eabi/14.3.1/thumb/v6-m/nofp\libgcc.a(_fixunsdfsi.o)
                              D:/Program Files/STM32CubeCLT_1.21.0/GNU-tools-for-STM32/bin/../lib/gcc/arm-none-eabi/14.3.1/thumb/v6-m/nofp\libgcc.a(_fixunssfdi.o) (__aeabi_d2uiz)
D:/Program Files/STM32CubeCLT_1.21.0/GNU-tools-for-STM32/bin/../lib/gcc/arm-none-eabi/14.3.1/thumb/v6-m/nofp\libgcc.a(fixdfsi.o)
                              D:/Program Files/STM32CubeCLT_1.21.0/GNU-tools-for-STM32/bin/../lib/gcc/arm-none-eabi/14.3.1/thumb/v6-m/nofp\libgcc.a(_fixunsdfsi.o) (__aeabi_d2iz)
D:/Program Files/STM32CubeCLT_1.21.0/GNU-tools-for-STM32/bin/../lib/gcc/arm-none-eabi/14.3.1/thumb/v6-m/nofp\libgcc.a(_arm_cmpdf2.o)
                              D:/Program Files/STM32CubeCLT_1.21.0/GNU-tools-for-STM32/bin/../lib/gcc/arm-none-eabi/14.3.1/thumb/v6-m/nofp\libgcc.a(_fixunsdfsi.o) (__aeabi_dcmpge)
D:/Program Files/STM32CubeCLT_1.21.0/GNU-tools-for-STM32/bin/../lib/gcc/arm-none-eabi/14.3.1/thumb/v6-m/nofp\libgcc.a(eqdf2.o)
                              D:/Program Files/STM32CubeCLT_1.21.0/GNU-tools-for-STM32/bin/../lib/gcc/arm-none-eabi/14.3.1/thumb/v6-m/nofp\libgcc.a(_arm_cmpdf2.o) (__eqdf2)
D:/Program Files/STM32CubeCLT_1.21.0/GNU-tools-for-STM32/bin/../lib/gcc/arm-none-eabi/14.3.1/thumb/v6-m/nofp\libgcc.a(gedf2.o)
                              D:/Program Files/STM32CubeCLT_1.21.0/GNU-tools-for-STM32/bin/../lib/gcc/arm-none-eabi/14.3.1/thumb/v6-m/nofp\libgcc.a(_arm_cmpdf2.o) (__gedf2)
D:/Program Files/STM32CubeCLT_1.21.0/GNU-tools-for-STM32/bin/../lib/gcc/arm-none-eabi/14.3.1/thumb/v6-m/nofp\libgcc.a(ledf2.o)
                              D:/Program Files/STM32CubeCLT_1.21.0/GNU-tools-for-STM32/bin/../lib/gcc/arm-none-eabi/14.3.1/thumb/v6-m/nofp\libgcc.a(_arm_cmpdf2.o) (__ledf2)
D:/Program Files/STM32CubeCLT_1.21.0/GNU-tools-for-STM32/bin/../lib/gcc/arm-none-eabi/14.3.1/../../../../arm-none-eabi/lib/thumb/v6-m/nofp\libg_nano.a(libc_a-findfp.o)
                              CMakeFiles/MSPM0G3507_BASIC.elf.dir/D_/tools/ti/mspm0_sdk_2_10_00_04/kernel/freertos/Source/tasks.c.obj (__sf)
D:/Program Files/STM32CubeCLT_1.21.0/GNU-tools-for-STM32/bin/../lib/gcc/arm-none-eabi/14.3.1/../../../../arm-none-eabi/lib/thumb/v6-m/nofp\libg_nano.a(libc_a-fwalk.o)
                              D:/Program Files/STM32CubeCLT_1.21.0/GNU-tools-for-STM32/bin/../lib/gcc/arm-none-eabi/14.3.1/../../../../arm-none-eabi/lib/thumb/v6-m/nofp\libg_nano.a(libc_a-findfp.o) (_fwalk_sglue)
D:/Program Files/STM32CubeCLT_1.21.0/GNU-tools-for-STM32/bin/../lib/gcc/arm-none-eabi/14.3.1/../../../../arm-none-eabi/lib/thumb/v6-m/nofp\libg_nano.a(libc_a-sprintf.o)
                              bsp/libbsp.a(bsp_log.c.obj) (sprintf)
D:/Program Files/STM32CubeCLT_1.21.0/GNU-tools-for-STM32/bin/../lib/gcc/arm-none-eabi/14.3.1/../../../../arm-none-eabi/lib/thumb/v6-m/nofp\libg_nano.a(libc_a-stdio.o)
                              D:/Program Files/STM32CubeCLT_1.21.0/GNU-tools-for-STM32/bin/../lib/gcc/arm-none-eabi/14.3.1/../../../../arm-none-eabi/lib/thumb/v6-m/nofp\libg_nano.a(libc_a-findfp.o) (__sread)
D:/Program Files/STM32CubeCLT_1.21.0/GNU-tools-for-STM32/bin/../lib/gcc/arm-none-eabi/14.3.1/../../../../arm-none-eabi/lib/thumb/v6-m/nofp\libg_nano.a(libc_a-vprintf.o)
                              app/libapp.a(robot.c.obj) (vprintf)
D:/Program Files/STM32CubeCLT_1.21.0/GNU-tools-for-STM32/bin/../lib/gcc/arm-none-eabi/14.3.1/../../../../arm-none-eabi/lib/thumb/v6-m/nofp\libg_nano.a(libc_a-memset.o)
                              CMakeFiles/MSPM0G3507_BASIC.elf.dir/D_/tools/ti/mspm0_sdk_2_10_00_04/source/ti/devices/msp/m0p/startup_system_files/gcc/startup_mspm0g350x_gcc.c.obj (memset)
D:/Program Files/STM32CubeCLT_1.21.0/GNU-tools-for-STM32/bin/../lib/gcc/arm-none-eabi/14.3.1/../../../../arm-none-eabi/lib/thumb/v6-m/nofp\libg_nano.a(libc_a-closer.o)
                              D:/Program Files/STM32CubeCLT_1.21.0/GNU-tools-for-STM32/bin/../lib/gcc/arm-none-eabi/14.3.1/../../../../arm-none-eabi/lib/thumb/v6-m/nofp\libg_nano.a(libc_a-stdio.o) (_close_r)
D:/Program Files/STM32CubeCLT_1.21.0/GNU-tools-for-STM32/bin/../lib/gcc/arm-none-eabi/14.3.1/../../../../arm-none-eabi/lib/thumb/v6-m/nofp\libg_nano.a(libc_a-reent.o)
                              CMakeFiles/MSPM0G3507_BASIC.elf.dir/D_/tools/ti/mspm0_sdk_2_10_00_04/kernel/freertos/Source/tasks.c.obj (_reclaim_reent)
D:/Program Files/STM32CubeCLT_1.21.0/GNU-tools-for-STM32/bin/../lib/gcc/arm-none-eabi/14.3.1/../../../../arm-none-eabi/lib/thumb/v6-m/nofp\libg_nano.a(libc_a-impure.o)
                              CMakeFiles/MSPM0G3507_BASIC.elf.dir/D_/tools/ti/mspm0_sdk_2_10_00_04/kernel/freertos/Source/tasks.c.obj (_impure_ptr)
D:/Program Files/STM32CubeCLT_1.21.0/GNU-tools-for-STM32/bin/../lib/gcc/arm-none-eabi/14.3.1/../../../../arm-none-eabi/lib/thumb/v6-m/nofp\libg_nano.a(libc_a-lseekr.o)
                              D:/Program Files/STM32CubeCLT_1.21.0/GNU-tools-for-STM32/bin/../lib/gcc/arm-none-eabi/14.3.1/../../../../arm-none-eabi/lib/thumb/v6-m/nofp\libg_nano.a(libc_a-stdio.o) (_lseek_r)
D:/Program Files/STM32CubeCLT_1.21.0/GNU-tools-for-STM32/bin/../lib/gcc/arm-none-eabi/14.3.1/../../../../arm-none-eabi/lib/thumb/v6-m/nofp\libg_nano.a(libc_a-readr.o)
                              D:/Program Files/STM32CubeCLT_1.21.0/GNU-tools-for-STM32/bin/../lib/gcc/arm-none-eabi/14.3.1/../../../../arm-none-eabi/lib/thumb/v6-m/nofp\libg_nano.a(libc_a-stdio.o) (_read_r)
D:/Program Files/STM32CubeCLT_1.21.0/GNU-tools-for-STM32/bin/../lib/gcc/arm-none-eabi/14.3.1/../../../../arm-none-eabi/lib/thumb/v6-m/nofp\libg_nano.a(libc_a-writer.o)
                              D:/Program Files/STM32CubeCLT_1.21.0/GNU-tools-for-STM32/bin/../lib/gcc/arm-none-eabi/14.3.1/../../../../arm-none-eabi/lib/thumb/v6-m/nofp\libg_nano.a(libc_a-stdio.o) (_write_r)
D:/Program Files/STM32CubeCLT_1.21.0/GNU-tools-for-STM32/bin/../lib/gcc/arm-none-eabi/14.3.1/../../../../arm-none-eabi/lib/thumb/v6-m/nofp\libg_nano.a(libc_a-errno.o)
                              CMakeFiles/MSPM0G3507_BASIC.elf.dir/app/syscalls_stub.c.obj (__errno)
D:/Program Files/STM32CubeCLT_1.21.0/GNU-tools-for-STM32/bin/../lib/gcc/arm-none-eabi/14.3.1/../../../../arm-none-eabi/lib/thumb/v6-m/nofp\libg_nano.a(libc_a-init.o)
                              CMakeFiles/MSPM0G3507_BASIC.elf.dir/D_/tools/ti/mspm0_sdk_2_10_00_04/source/ti/devices/msp/m0p/startup_system_files/gcc/startup_mspm0g350x_gcc.c.obj (__libc_init_array)
D:/Program Files/STM32CubeCLT_1.21.0/GNU-tools-for-STM32/bin/../lib/gcc/arm-none-eabi/14.3.1/../../../../arm-none-eabi/lib/thumb/v6-m/nofp\libg_nano.a(libc_a-lock.o)
                              D:/Program Files/STM32CubeCLT_1.21.0/GNU-tools-for-STM32/bin/../lib/gcc/arm-none-eabi/14.3.1/../../../../arm-none-eabi/lib/thumb/v6-m/nofp\libg_nano.a(libc_a-findfp.o) (__retarget_lock_init_recursive)
D:/Program Files/STM32CubeCLT_1.21.0/GNU-tools-for-STM32/bin/../lib/gcc/arm-none-eabi/14.3.1/../../../../arm-none-eabi/lib/thumb/v6-m/nofp\libg_nano.a(libc_a-memcpy-stub.o)
                              CMakeFiles/MSPM0G3507_BASIC.elf.dir/D_/tools/ti/mspm0_sdk_2_10_00_04/source/ti/devices/msp/m0p/startup_system_files/gcc/startup_mspm0g350x_gcc.c.obj (memcpy)
D:/Program Files/STM32CubeCLT_1.21.0/GNU-tools-for-STM32/bin/../lib/gcc/arm-none-eabi/14.3.1/../../../../arm-none-eabi/lib/thumb/v6-m/nofp\libg_nano.a(libc_a-freer.o)
                              D:/Program Files/STM32CubeCLT_1.21.0/GNU-tools-for-STM32/bin/../lib/gcc/arm-none-eabi/14.3.1/../../../../arm-none-eabi/lib/thumb/v6-m/nofp\libg_nano.a(libc_a-reent.o) (_free_r)
D:/Program Files/STM32CubeCLT_1.21.0/GNU-tools-for-STM32/bin/../lib/gcc/arm-none-eabi/14.3.1/../../../../arm-none-eabi/lib/thumb/v6-m/nofp\libg_nano.a(libc_a-mallocr.o)
                              D:/Program Files/STM32CubeCLT_1.21.0/GNU-tools-for-STM32/bin/../lib/gcc/arm-none-eabi/14.3.1/../../../../arm-none-eabi/lib/thumb/v6-m/nofp\libg_nano.a(libc_a-findfp.o) (_malloc_r)
D:/Program Files/STM32CubeCLT_1.21.0/GNU-tools-for-STM32/bin/../lib/gcc/arm-none-eabi/14.3.1/../../../../arm-none-eabi/lib/thumb/v6-m/nofp\libg_nano.a(libc_a-mlock.o)
                              D:/Program Files/STM32CubeCLT_1.21.0/GNU-tools-for-STM32/bin/../lib/gcc/arm-none-eabi/14.3.1/../../../../arm-none-eabi/lib/thumb/v6-m/nofp\libg_nano.a(libc_a-freer.o) (__malloc_lock)
D:/Program Files/STM32CubeCLT_1.21.0/GNU-tools-for-STM32/bin/../lib/gcc/arm-none-eabi/14.3.1/../../../../arm-none-eabi/lib/thumb/v6-m/nofp\libg_nano.a(libc_a-nano-svfprintf.o)
                              D:/Program Files/STM32CubeCLT_1.21.0/GNU-tools-for-STM32/bin/../lib/gcc/arm-none-eabi/14.3.1/../../../../arm-none-eabi/lib/thumb/v6-m/nofp\libg_nano.a(libc_a-sprintf.o) (_svfprintf_r)
D:/Program Files/STM32CubeCLT_1.21.0/GNU-tools-for-STM32/bin/../lib/gcc/arm-none-eabi/14.3.1/../../../../arm-none-eabi/lib/thumb/v6-m/nofp\libg_nano.a(libc_a-nano-vfprintf.o)
                              D:/Program Files/STM32CubeCLT_1.21.0/GNU-tools-for-STM32/bin/../lib/gcc/arm-none-eabi/14.3.1/../../../../arm-none-eabi/lib/thumb/v6-m/nofp\libg_nano.a(libc_a-vprintf.o) (_vfprintf_r)
D:/Program Files/STM32CubeCLT_1.21.0/GNU-tools-for-STM32/bin/../lib/gcc/arm-none-eabi/14.3.1/../../../../arm-none-eabi/lib/thumb/v6-m/nofp\libg_nano.a(libc_a-nano-vfprintf_i.o)
                              D:/Program Files/STM32CubeCLT_1.21.0/GNU-tools-for-STM32/bin/../lib/gcc/arm-none-eabi/14.3.1/../../../../arm-none-eabi/lib/thumb/v6-m/nofp\libg_nano.a(libc_a-nano-svfprintf.o) (_printf_i)
D:/Program Files/STM32CubeCLT_1.21.0/GNU-tools-for-STM32/bin/../lib/gcc/arm-none-eabi/14.3.1/../../../../arm-none-eabi/lib/thumb/v6-m/nofp\libg_nano.a(libc_a-fflush.o)
                              D:/Program Files/STM32CubeCLT_1.21.0/GNU-tools-for-STM32/bin/../lib/gcc/arm-none-eabi/14.3.1/../../../../arm-none-eabi/lib/thumb/v6-m/nofp\libg_nano.a(libc_a-findfp.o) (_fflush_r)
D:/Program Files/STM32CubeCLT_1.21.0/GNU-tools-for-STM32/bin/../lib/gcc/arm-none-eabi/14.3.1/../../../../arm-none-eabi/lib/thumb/v6-m/nofp\libg_nano.a(libc_a-fvwrite.o)
                              D:/Program Files/STM32CubeCLT_1.21.0/GNU-tools-for-STM32/bin/../lib/gcc/arm-none-eabi/14.3.1/../../../../arm-none-eabi/lib/thumb/v6-m/nofp\libg_nano.a(libc_a-nano-vfprintf.o) (__sfvwrite_r)
D:/Program Files/STM32CubeCLT_1.21.0/GNU-tools-for-STM32/bin/../lib/gcc/arm-none-eabi/14.3.1/../../../../arm-none-eabi/lib/thumb/v6-m/nofp\libg_nano.a(libc_a-wbuf.o)
                              D:/Program Files/STM32CubeCLT_1.21.0/GNU-tools-for-STM32/bin/../lib/gcc/arm-none-eabi/14.3.1/../../../../arm-none-eabi/lib/thumb/v6-m/nofp\libg_nano.a(libc_a-nano-vfprintf.o) (__swbuf_r)
D:/Program Files/STM32CubeCLT_1.21.0/GNU-tools-for-STM32/bin/../lib/gcc/arm-none-eabi/14.3.1/../../../../arm-none-eabi/lib/thumb/v6-m/nofp\libg_nano.a(libc_a-wsetup.o)
                              D:/Program Files/STM32CubeCLT_1.21.0/GNU-tools-for-STM32/bin/../lib/gcc/arm-none-eabi/14.3.1/../../../../arm-none-eabi/lib/thumb/v6-m/nofp\libg_nano.a(libc_a-nano-vfprintf.o) (__swsetup_r)
D:/Program Files/STM32CubeCLT_1.21.0/GNU-tools-for-STM32/bin/../lib/gcc/arm-none-eabi/14.3.1/../../../../arm-none-eabi/lib/thumb/v6-m/nofp\libg_nano.a(libc_a-memmove.o)
                              D:/Program Files/STM32CubeCLT_1.21.0/GNU-tools-for-STM32/bin/../lib/gcc/arm-none-eabi/14.3.1/../../../../arm-none-eabi/lib/thumb/v6-m/nofp\libg_nano.a(libc_a-nano-svfprintf.o) (memmove)
D:/Program Files/STM32CubeCLT_1.21.0/GNU-tools-for-STM32/bin/../lib/gcc/arm-none-eabi/14.3.1/../../../../arm-none-eabi/lib/thumb/v6-m/nofp\libg_nano.a(libc_a-sbrkr.o)
                              D:/Program Files/STM32CubeCLT_1.21.0/GNU-tools-for-STM32/bin/../lib/gcc/arm-none-eabi/14.3.1/../../../../arm-none-eabi/lib/thumb/v6-m/nofp\libg_nano.a(libc_a-mallocr.o) (_sbrk_r)
D:/Program Files/STM32CubeCLT_1.21.0/GNU-tools-for-STM32/bin/../lib/gcc/arm-none-eabi/14.3.1/../../../../arm-none-eabi/lib/thumb/v6-m/nofp\libg_nano.a(libc_a-memchr-stub.o)
                              D:/Program Files/STM32CubeCLT_1.21.0/GNU-tools-for-STM32/bin/../lib/gcc/arm-none-eabi/14.3.1/../../../../arm-none-eabi/lib/thumb/v6-m/nofp\libg_nano.a(libc_a-nano-svfprintf.o) (memchr)
D:/Program Files/STM32CubeCLT_1.21.0/GNU-tools-for-STM32/bin/../lib/gcc/arm-none-eabi/14.3.1/../../../../arm-none-eabi/lib/thumb/v6-m/nofp\libg_nano.a(libc_a-reallocr.o)
                              D:/Program Files/STM32CubeCLT_1.21.0/GNU-tools-for-STM32/bin/../lib/gcc/arm-none-eabi/14.3.1/../../../../arm-none-eabi/lib/thumb/v6-m/nofp\libg_nano.a(libc_a-nano-svfprintf.o) (_realloc_r)
D:/Program Files/STM32CubeCLT_1.21.0/GNU-tools-for-STM32/bin/../lib/gcc/arm-none-eabi/14.3.1/../../../../arm-none-eabi/lib/thumb/v6-m/nofp\libg_nano.a(libc_a-makebuf.o)
                              D:/Program Files/STM32CubeCLT_1.21.0/GNU-tools-for-STM32/bin/../lib/gcc/arm-none-eabi/14.3.1/../../../../arm-none-eabi/lib/thumb/v6-m/nofp\libg_nano.a(libc_a-wsetup.o) (__smakebuf_r)
D:/Program Files/STM32CubeCLT_1.21.0/GNU-tools-for-STM32/bin/../lib/gcc/arm-none-eabi/14.3.1/../../../../arm-none-eabi/lib/thumb/v6-m/nofp\libg_nano.a(libc_a-fstatr.o)
                              D:/Program Files/STM32CubeCLT_1.21.0/GNU-tools-for-STM32/bin/../lib/gcc/arm-none-eabi/14.3.1/../../../../arm-none-eabi/lib/thumb/v6-m/nofp\libg_nano.a(libc_a-makebuf.o) (_fstat_r)
D:/Program Files/STM32CubeCLT_1.21.0/GNU-tools-for-STM32/bin/../lib/gcc/arm-none-eabi/14.3.1/../../../../arm-none-eabi/lib/thumb/v6-m/nofp\libg_nano.a(libc_a-isattyr.o)
                              D:/Program Files/STM32CubeCLT_1.21.0/GNU-tools-for-STM32/bin/../lib/gcc/arm-none-eabi/14.3.1/../../../../arm-none-eabi/lib/thumb/v6-m/nofp\libg_nano.a(libc_a-makebuf.o) (_isatty_r)
D:/Program Files/STM32CubeCLT_1.21.0/GNU-tools-for-STM32/bin/../lib/gcc/arm-none-eabi/14.3.1/../../../../arm-none-eabi/lib/thumb/v6-m/nofp\libg_nano.a(libc_a-msizer.o)
                              D:/Program Files/STM32CubeCLT_1.21.0/GNU-tools-for-STM32/bin/../lib/gcc/arm-none-eabi/14.3.1/../../../../arm-none-eabi/lib/thumb/v6-m/nofp\libg_nano.a(libc_a-reallocr.o) (_malloc_usable_size_r)
D:/Program Files/STM32CubeCLT_1.21.0/GNU-tools-for-STM32/bin/../lib/gcc/arm-none-eabi/14.3.1/thumb/v6-m/nofp\libgcc.a(_thumb1_case_shi.o)
                              D:/Program Files/STM32CubeCLT_1.21.0/GNU-tools-for-STM32/bin/../lib/gcc/arm-none-eabi/14.3.1/../../../../arm-none-eabi/lib/thumb/v6-m/nofp\libg_nano.a(libc_a-nano-vfprintf_i.o) (__gnu_thumb1_case_shi)
D:/Program Files/STM32CubeCLT_1.21.0/GNU-tools-for-STM32/bin/../lib/gcc/arm-none-eabi/14.3.1/thumb/v6-m/nofp\libgcc.a(_divsi3.o)
                              D:/Program Files/STM32CubeCLT_1.21.0/GNU-tools-for-STM32/bin/../lib/gcc/arm-none-eabi/14.3.1/../../../../arm-none-eabi/lib/thumb/v6-m/nofp\libg_nano.a(libc_a-fvwrite.o) (__aeabi_idiv)
D:/Program Files/STM32CubeCLT_1.21.0/GNU-tools-for-STM32/bin/../lib/gcc/arm-none-eabi/14.3.1/../../../../arm-none-eabi/lib/thumb/v6-m/nofp\libnosys.a(sbrk.o)
                              D:/Program Files/STM32CubeCLT_1.21.0/GNU-tools-for-STM32/bin/../lib/gcc/arm-none-eabi/14.3.1/../../../../arm-none-eabi/lib/thumb/v6-m/nofp\libg_nano.a(libc_a-sbrkr.o) (_sbrk)

Discarded input sections

 .text.SYSCFG_DL_saveConfiguration
                0x00000000       0x60 CMakeFiles/MSPM0G3507_BASIC.elf.dir/syscfg/ti_msp_dl_config.c.obj
 .text.SYSCFG_DL_restoreConfiguration
                0x00000000       0x68 CMakeFiles/MSPM0G3507_BASIC.elf.dir/syscfg/ti_msp_dl_config.c.obj
 .text.xEventGroupSetBits.part.0
                0x00000000       0xa8 CMakeFiles/MSPM0G3507_BASIC.elf.dir/D_/tools/ti/mspm0_sdk_2_10_00_04/kernel/freertos/Source/event_groups.c.obj
 .text.xEventGroupCreateStatic
                0x00000000       0x30 CMakeFiles/MSPM0G3507_BASIC.elf.dir/D_/tools/ti/mspm0_sdk_2_10_00_04/kernel/freertos/Source/event_groups.c.obj
 .text.xEventGroupCreate
                0x00000000       0x1c CMakeFiles/MSPM0G3507_BASIC.elf.dir/D_/tools/ti/mspm0_sdk_2_10_00_04/kernel/freertos/Source/event_groups.c.obj
 .text.xEventGroupSync
                0x00000000       0xbc CMakeFiles/MSPM0G3507_BASIC.elf.dir/D_/tools/ti/mspm0_sdk_2_10_00_04/kernel/freertos/Source/event_groups.c.obj
 .text.xEventGroupWaitBits
                0x00000000      0x100 CMakeFiles/MSPM0G3507_BASIC.elf.dir/D_/tools/ti/mspm0_sdk_2_10_00_04/kernel/freertos/Source/event_groups.c.obj
 .text.xEventGroupClearBits
                0x00000000       0x30 CMakeFiles/MSPM0G3507_BASIC.elf.dir/D_/tools/ti/mspm0_sdk_2_10_00_04/kernel/freertos/Source/event_groups.c.obj
 .text.xEventGroupGetBitsFromISR
                0x00000000       0x14 CMakeFiles/MSPM0G3507_BASIC.elf.dir/D_/tools/ti/mspm0_sdk_2_10_00_04/kernel/freertos/Source/event_groups.c.obj
 .text.xEventGroupSetBits
                0x00000000       0x1c CMakeFiles/MSPM0G3507_BASIC.elf.dir/D_/tools/ti/mspm0_sdk_2_10_00_04/kernel/freertos/Source/event_groups.c.obj
 .text.vEventGroupDelete
                0x00000000       0x48 CMakeFiles/MSPM0G3507_BASIC.elf.dir/D_/tools/ti/mspm0_sdk_2_10_00_04/kernel/freertos/Source/event_groups.c.obj
 .text.xEventGroupGetStaticBuffer
                0x00000000       0x20 CMakeFiles/MSPM0G3507_BASIC.elf.dir/D_/tools/ti/mspm0_sdk_2_10_00_04/kernel/freertos/Source/event_groups.c.obj
 .text.vEventGroupSetBitsCallback
                0x00000000       0x1c CMakeFiles/MSPM0G3507_BASIC.elf.dir/D_/tools/ti/mspm0_sdk_2_10_00_04/kernel/freertos/Source/event_groups.c.obj
 .text.vEventGroupClearBitsCallback
                0x00000000       0x2c CMakeFiles/MSPM0G3507_BASIC.elf.dir/D_/tools/ti/mspm0_sdk_2_10_00_04/kernel/freertos/Source/event_groups.c.obj
 .text.uxEventGroupGetNumber
                0x00000000        0xc CMakeFiles/MSPM0G3507_BASIC.elf.dir/D_/tools/ti/mspm0_sdk_2_10_00_04/kernel/freertos/Source/event_groups.c.obj
 .text.vEventGroupSetNumber
                0x00000000        0x4 CMakeFiles/MSPM0G3507_BASIC.elf.dir/D_/tools/ti/mspm0_sdk_2_10_00_04/kernel/freertos/Source/event_groups.c.obj
 .text.vListInsertEnd
                0x00000000       0x18 CMakeFiles/MSPM0G3507_BASIC.elf.dir/D_/tools/ti/mspm0_sdk_2_10_00_04/kernel/freertos/Source/list.c.obj
 .text.prvCopyDataToQueue
                0x00000000       0x78 CMakeFiles/MSPM0G3507_BASIC.elf.dir/D_/tools/ti/mspm0_sdk_2_10_00_04/kernel/freertos/Source/queue.c.obj
 .text.xQueueGenericGetStaticBuffers
                0x00000000       0x30 CMakeFiles/MSPM0G3507_BASIC.elf.dir/D_/tools/ti/mspm0_sdk_2_10_00_04/kernel/freertos/Source/queue.c.obj
 .text.xQueueGenericCreate
                0x00000000       0x78 CMakeFiles/MSPM0G3507_BASIC.elf.dir/D_/tools/ti/mspm0_sdk_2_10_00_04/kernel/freertos/Source/queue.c.obj
 .text.xQueueCreateCountingSemaphoreStatic
                0x00000000       0x50 CMakeFiles/MSPM0G3507_BASIC.elf.dir/D_/tools/ti/mspm0_sdk_2_10_00_04/kernel/freertos/Source/queue.c.obj
 .text.xQueueCreateCountingSemaphore
                0x00000000       0x20 CMakeFiles/MSPM0G3507_BASIC.elf.dir/D_/tools/ti/mspm0_sdk_2_10_00_04/kernel/freertos/Source/queue.c.obj
 .text.xQueueGenericSend
                0x00000000      0x13c CMakeFiles/MSPM0G3507_BASIC.elf.dir/D_/tools/ti/mspm0_sdk_2_10_00_04/kernel/freertos/Source/queue.c.obj
 .text.xQueueCreateMutexStatic
                0x00000000       0x54 CMakeFiles/MSPM0G3507_BASIC.elf.dir/D_/tools/ti/mspm0_sdk_2_10_00_04/kernel/freertos/Source/queue.c.obj
 .text.xQueueGiveMutexRecursive
                0x00000000       0x38 CMakeFiles/MSPM0G3507_BASIC.elf.dir/D_/tools/ti/mspm0_sdk_2_10_00_04/kernel/freertos/Source/queue.c.obj
 .text.xQueueCreateMutex
                0x00000000       0x3c CMakeFiles/MSPM0G3507_BASIC.elf.dir/D_/tools/ti/mspm0_sdk_2_10_00_04/kernel/freertos/Source/queue.c.obj
 .text.xQueueGenericSendFromISR
                0x00000000       0xbc CMakeFiles/MSPM0G3507_BASIC.elf.dir/D_/tools/ti/mspm0_sdk_2_10_00_04/kernel/freertos/Source/queue.c.obj
 .text.xQueueGiveFromISR
                0x00000000       0x98 CMakeFiles/MSPM0G3507_BASIC.elf.dir/D_/tools/ti/mspm0_sdk_2_10_00_04/kernel/freertos/Source/queue.c.obj
 .text.xQueueSemaphoreTake
                0x00000000      0x160 CMakeFiles/MSPM0G3507_BASIC.elf.dir/D_/tools/ti/mspm0_sdk_2_10_00_04/kernel/freertos/Source/queue.c.obj
 .text.xQueueTakeMutexRecursive
                0x00000000       0x30 CMakeFiles/MSPM0G3507_BASIC.elf.dir/D_/tools/ti/mspm0_sdk_2_10_00_04/kernel/freertos/Source/queue.c.obj
 .text.xQueuePeek
                0x00000000      0x13c CMakeFiles/MSPM0G3507_BASIC.elf.dir/D_/tools/ti/mspm0_sdk_2_10_00_04/kernel/freertos/Source/queue.c.obj
 .text.xQueueReceiveFromISR
                0x00000000       0xb4 CMakeFiles/MSPM0G3507_BASIC.elf.dir/D_/tools/ti/mspm0_sdk_2_10_00_04/kernel/freertos/Source/queue.c.obj
 .text.xQueuePeekFromISR
                0x00000000       0x60 CMakeFiles/MSPM0G3507_BASIC.elf.dir/D_/tools/ti/mspm0_sdk_2_10_00_04/kernel/freertos/Source/queue.c.obj
 .text.uxQueueMessagesWaiting
                0x00000000       0x18 CMakeFiles/MSPM0G3507_BASIC.elf.dir/D_/tools/ti/mspm0_sdk_2_10_00_04/kernel/freertos/Source/queue.c.obj
 .text.uxQueueSpacesAvailable
                0x00000000       0x1c CMakeFiles/MSPM0G3507_BASIC.elf.dir/D_/tools/ti/mspm0_sdk_2_10_00_04/kernel/freertos/Source/queue.c.obj
 .text.uxQueueMessagesWaitingFromISR
                0x00000000        0xc CMakeFiles/MSPM0G3507_BASIC.elf.dir/D_/tools/ti/mspm0_sdk_2_10_00_04/kernel/freertos/Source/queue.c.obj
 .text.vQueueDelete
                0x00000000       0x1c CMakeFiles/MSPM0G3507_BASIC.elf.dir/D_/tools/ti/mspm0_sdk_2_10_00_04/kernel/freertos/Source/queue.c.obj
 .text.uxQueueGetQueueNumber
                0x00000000        0x4 CMakeFiles/MSPM0G3507_BASIC.elf.dir/D_/tools/ti/mspm0_sdk_2_10_00_04/kernel/freertos/Source/queue.c.obj
 .text.vQueueSetQueueNumber
                0x00000000        0x4 CMakeFiles/MSPM0G3507_BASIC.elf.dir/D_/tools/ti/mspm0_sdk_2_10_00_04/kernel/freertos/Source/queue.c.obj
 .text.ucQueueGetQueueType
                0x00000000        0x8 CMakeFiles/MSPM0G3507_BASIC.elf.dir/D_/tools/ti/mspm0_sdk_2_10_00_04/kernel/freertos/Source/queue.c.obj
 .text.uxQueueGetQueueItemSize
                0x00000000        0x4 CMakeFiles/MSPM0G3507_BASIC.elf.dir/D_/tools/ti/mspm0_sdk_2_10_00_04/kernel/freertos/Source/queue.c.obj
 .text.uxQueueGetQueueLength
                0x00000000        0x4 CMakeFiles/MSPM0G3507_BASIC.elf.dir/D_/tools/ti/mspm0_sdk_2_10_00_04/kernel/freertos/Source/queue.c.obj
 .text.xQueueIsQueueEmptyFromISR
                0x00000000       0x10 CMakeFiles/MSPM0G3507_BASIC.elf.dir/D_/tools/ti/mspm0_sdk_2_10_00_04/kernel/freertos/Source/queue.c.obj
 .text.xQueueIsQueueFullFromISR
                0x00000000       0x14 CMakeFiles/MSPM0G3507_BASIC.elf.dir/D_/tools/ti/mspm0_sdk_2_10_00_04/kernel/freertos/Source/queue.c.obj
 .text.prvWriteBytesToBuffer.part.0
                0x00000000       0x60 CMakeFiles/MSPM0G3507_BASIC.elf.dir/D_/tools/ti/mspm0_sdk_2_10_00_04/kernel/freertos/Source/stream_buffer.c.obj
 .text.prvWriteMessageToBuffer
                0x00000000       0x54 CMakeFiles/MSPM0G3507_BASIC.elf.dir/D_/tools/ti/mspm0_sdk_2_10_00_04/kernel/freertos/Source/stream_buffer.c.obj
 .text.prvReadBytesFromBuffer.part.0
                0x00000000       0x58 CMakeFiles/MSPM0G3507_BASIC.elf.dir/D_/tools/ti/mspm0_sdk_2_10_00_04/kernel/freertos/Source/stream_buffer.c.obj
 .text.prvReadMessageFromBuffer
                0x00000000       0x58 CMakeFiles/MSPM0G3507_BASIC.elf.dir/D_/tools/ti/mspm0_sdk_2_10_00_04/kernel/freertos/Source/stream_buffer.c.obj
 .text.xStreamBufferGenericCreate
                0x00000000       0x90 CMakeFiles/MSPM0G3507_BASIC.elf.dir/D_/tools/ti/mspm0_sdk_2_10_00_04/kernel/freertos/Source/stream_buffer.c.obj
 .text.xStreamBufferGenericCreateStatic
                0x00000000       0x90 CMakeFiles/MSPM0G3507_BASIC.elf.dir/D_/tools/ti/mspm0_sdk_2_10_00_04/kernel/freertos/Source/stream_buffer.c.obj
 .text.xStreamBufferGetStaticBuffers
                0x00000000       0x30 CMakeFiles/MSPM0G3507_BASIC.elf.dir/D_/tools/ti/mspm0_sdk_2_10_00_04/kernel/freertos/Source/stream_buffer.c.obj
 .text.vStreamBufferDelete
                0x00000000       0x20 CMakeFiles/MSPM0G3507_BASIC.elf.dir/D_/tools/ti/mspm0_sdk_2_10_00_04/kernel/freertos/Source/stream_buffer.c.obj
 .text.xStreamBufferReset
                0x00000000       0x70 CMakeFiles/MSPM0G3507_BASIC.elf.dir/D_/tools/ti/mspm0_sdk_2_10_00_04/kernel/freertos/Source/stream_buffer.c.obj
 .text.xStreamBufferResetFromISR
                0x00000000       0x78 CMakeFiles/MSPM0G3507_BASIC.elf.dir/D_/tools/ti/mspm0_sdk_2_10_00_04/kernel/freertos/Source/stream_buffer.c.obj
 .text.xStreamBufferSetTriggerLevel
                0x00000000       0x28 CMakeFiles/MSPM0G3507_BASIC.elf.dir/D_/tools/ti/mspm0_sdk_2_10_00_04/kernel/freertos/Source/stream_buffer.c.obj
 .text.xStreamBufferSpacesAvailable
                0x00000000       0x28 CMakeFiles/MSPM0G3507_BASIC.elf.dir/D_/tools/ti/mspm0_sdk_2_10_00_04/kernel/freertos/Source/stream_buffer.c.obj
 .text.xStreamBufferBytesAvailable
                0x00000000       0x1c CMakeFiles/MSPM0G3507_BASIC.elf.dir/D_/tools/ti/mspm0_sdk_2_10_00_04/kernel/freertos/Source/stream_buffer.c.obj
 .text.xStreamBufferSend
                0x00000000      0x13c CMakeFiles/MSPM0G3507_BASIC.elf.dir/D_/tools/ti/mspm0_sdk_2_10_00_04/kernel/freertos/Source/stream_buffer.c.obj
 .text.xStreamBufferSendFromISR
                0x00000000       0x9c CMakeFiles/MSPM0G3507_BASIC.elf.dir/D_/tools/ti/mspm0_sdk_2_10_00_04/kernel/freertos/Source/stream_buffer.c.obj
 .text.xStreamBufferReceive
                0x00000000       0xec CMakeFiles/MSPM0G3507_BASIC.elf.dir/D_/tools/ti/mspm0_sdk_2_10_00_04/kernel/freertos/Source/stream_buffer.c.obj
 .text.xStreamBufferNextMessageLengthBytes
                0x00000000       0x4c CMakeFiles/MSPM0G3507_BASIC.elf.dir/D_/tools/ti/mspm0_sdk_2_10_00_04/kernel/freertos/Source/stream_buffer.c.obj
 .text.xStreamBufferReceiveFromISR
                0x00000000       0x70 CMakeFiles/MSPM0G3507_BASIC.elf.dir/D_/tools/ti/mspm0_sdk_2_10_00_04/kernel/freertos/Source/stream_buffer.c.obj
 .text.xStreamBufferIsEmpty
                0x00000000       0x14 CMakeFiles/MSPM0G3507_BASIC.elf.dir/D_/tools/ti/mspm0_sdk_2_10_00_04/kernel/freertos/Source/stream_buffer.c.obj
 .text.xStreamBufferIsFull
                0x00000000       0x34 CMakeFiles/MSPM0G3507_BASIC.elf.dir/D_/tools/ti/mspm0_sdk_2_10_00_04/kernel/freertos/Source/stream_buffer.c.obj
 .text.xStreamBufferSendCompletedFromISR
                0x00000000       0x40 CMakeFiles/MSPM0G3507_BASIC.elf.dir/D_/tools/ti/mspm0_sdk_2_10_00_04/kernel/freertos/Source/stream_buffer.c.obj
 .text.xStreamBufferReceiveCompletedFromISR
                0x00000000       0x40 CMakeFiles/MSPM0G3507_BASIC.elf.dir/D_/tools/ti/mspm0_sdk_2_10_00_04/kernel/freertos/Source/stream_buffer.c.obj
 .text.uxStreamBufferGetStreamBufferNotificationIndex
                0x00000000        0xc CMakeFiles/MSPM0G3507_BASIC.elf.dir/D_/tools/ti/mspm0_sdk_2_10_00_04/kernel/freertos/Source/stream_buffer.c.obj
 .text.vStreamBufferSetStreamBufferNotificationIndex
                0x00000000       0x28 CMakeFiles/MSPM0G3507_BASIC.elf.dir/D_/tools/ti/mspm0_sdk_2_10_00_04/kernel/freertos/Source/stream_buffer.c.obj
 .text.uxStreamBufferGetStreamBufferNumber
                0x00000000        0x4 CMakeFiles/MSPM0G3507_BASIC.elf.dir/D_/tools/ti/mspm0_sdk_2_10_00_04/kernel/freertos/Source/stream_buffer.c.obj
 .text.vStreamBufferSetStreamBufferNumber
                0x00000000        0x4 CMakeFiles/MSPM0G3507_BASIC.elf.dir/D_/tools/ti/mspm0_sdk_2_10_00_04/kernel/freertos/Source/stream_buffer.c.obj
 .text.ucStreamBufferGetStreamBufferType
                0x00000000        0x8 CMakeFiles/MSPM0G3507_BASIC.elf.dir/D_/tools/ti/mspm0_sdk_2_10_00_04/kernel/freertos/Source/stream_buffer.c.obj
 .text.vTaskDelete
                0x00000000       0xfc CMakeFiles/MSPM0G3507_BASIC.elf.dir/D_/tools/ti/mspm0_sdk_2_10_00_04/kernel/freertos/Source/tasks.c.obj
 .text.xTaskDelayUntil
                0x00000000       0x78 CMakeFiles/MSPM0G3507_BASIC.elf.dir/D_/tools/ti/mspm0_sdk_2_10_00_04/kernel/freertos/Source/tasks.c.obj
 .text.eTaskGetState
                0x00000000       0x98 CMakeFiles/MSPM0G3507_BASIC.elf.dir/D_/tools/ti/mspm0_sdk_2_10_00_04/kernel/freertos/Source/tasks.c.obj
 .text.uxTaskPriorityGet
                0x00000000       0x28 CMakeFiles/MSPM0G3507_BASIC.elf.dir/D_/tools/ti/mspm0_sdk_2_10_00_04/kernel/freertos/Source/tasks.c.obj
 .text.uxTaskPriorityGetFromISR
                0x00000000       0x28 CMakeFiles/MSPM0G3507_BASIC.elf.dir/D_/tools/ti/mspm0_sdk_2_10_00_04/kernel/freertos/Source/tasks.c.obj
 .text.uxTaskBasePriorityGet
                0x00000000       0x28 CMakeFiles/MSPM0G3507_BASIC.elf.dir/D_/tools/ti/mspm0_sdk_2_10_00_04/kernel/freertos/Source/tasks.c.obj
 .text.uxTaskBasePriorityGetFromISR
                0x00000000       0x28 CMakeFiles/MSPM0G3507_BASIC.elf.dir/D_/tools/ti/mspm0_sdk_2_10_00_04/kernel/freertos/Source/tasks.c.obj
 .text.vTaskPrioritySet
                0x00000000       0xc4 CMakeFiles/MSPM0G3507_BASIC.elf.dir/D_/tools/ti/mspm0_sdk_2_10_00_04/kernel/freertos/Source/tasks.c.obj
 .text.vTaskResume
                0x00000000       0x90 CMakeFiles/MSPM0G3507_BASIC.elf.dir/D_/tools/ti/mspm0_sdk_2_10_00_04/kernel/freertos/Source/tasks.c.obj
 .text.vTaskEndScheduler
                0x00000000       0x2c CMakeFiles/MSPM0G3507_BASIC.elf.dir/D_/tools/ti/mspm0_sdk_2_10_00_04/kernel/freertos/Source/tasks.c.obj
 .text.xTaskGetTickCountFromISR
                0x00000000        0xc CMakeFiles/MSPM0G3507_BASIC.elf.dir/D_/tools/ti/mspm0_sdk_2_10_00_04/kernel/freertos/Source/tasks.c.obj
 .text.uxTaskGetNumberOfTasks
                0x00000000        0xc CMakeFiles/MSPM0G3507_BASIC.elf.dir/D_/tools/ti/mspm0_sdk_2_10_00_04/kernel/freertos/Source/tasks.c.obj
 .text.pcTaskGetName
                0x00000000       0x18 CMakeFiles/MSPM0G3507_BASIC.elf.dir/D_/tools/ti/mspm0_sdk_2_10_00_04/kernel/freertos/Source/tasks.c.obj
 .text.xTaskGetStaticBuffers
                0x00000000       0x4c CMakeFiles/MSPM0G3507_BASIC.elf.dir/D_/tools/ti/mspm0_sdk_2_10_00_04/kernel/freertos/Source/tasks.c.obj
 .text.xTaskCatchUpTicks
                0x00000000       0x44 CMakeFiles/MSPM0G3507_BASIC.elf.dir/D_/tools/ti/mspm0_sdk_2_10_00_04/kernel/freertos/Source/tasks.c.obj
 .text.vTaskSetApplicationTaskTag
                0x00000000       0x20 CMakeFiles/MSPM0G3507_BASIC.elf.dir/D_/tools/ti/mspm0_sdk_2_10_00_04/kernel/freertos/Source/tasks.c.obj
 .text.xTaskGetApplicationTaskTag
                0x00000000       0x24 CMakeFiles/MSPM0G3507_BASIC.elf.dir/D_/tools/ti/mspm0_sdk_2_10_00_04/kernel/freertos/Source/tasks.c.obj
 .text.xTaskGetApplicationTaskTagFromISR
                0x00000000       0x24 CMakeFiles/MSPM0G3507_BASIC.elf.dir/D_/tools/ti/mspm0_sdk_2_10_00_04/kernel/freertos/Source/tasks.c.obj
 .text.xTaskCallApplicationTaskHook
                0x00000000       0x28 CMakeFiles/MSPM0G3507_BASIC.elf.dir/D_/tools/ti/mspm0_sdk_2_10_00_04/kernel/freertos/Source/tasks.c.obj
 .text.vTaskSuspend
                0x00000000       0xcc CMakeFiles/MSPM0G3507_BASIC.elf.dir/D_/tools/ti/mspm0_sdk_2_10_00_04/kernel/freertos/Source/tasks.c.obj
 .text.vTaskPlaceOnUnorderedEventList
                0x00000000       0x58 CMakeFiles/MSPM0G3507_BASIC.elf.dir/D_/tools/ti/mspm0_sdk_2_10_00_04/kernel/freertos/Source/tasks.c.obj
 .text.vTaskRemoveFromUnorderedEventList
                0x00000000       0xd4 CMakeFiles/MSPM0G3507_BASIC.elf.dir/D_/tools/ti/mspm0_sdk_2_10_00_04/kernel/freertos/Source/tasks.c.obj
 .text.vTaskSetTimeOutState
                0x00000000       0x28 CMakeFiles/MSPM0G3507_BASIC.elf.dir/D_/tools/ti/mspm0_sdk_2_10_00_04/kernel/freertos/Source/tasks.c.obj
 .text.uxTaskGetTaskNumber
                0x00000000        0xc CMakeFiles/MSPM0G3507_BASIC.elf.dir/D_/tools/ti/mspm0_sdk_2_10_00_04/kernel/freertos/Source/tasks.c.obj
 .text.vTaskSetTaskNumber
                0x00000000        0x8 CMakeFiles/MSPM0G3507_BASIC.elf.dir/D_/tools/ti/mspm0_sdk_2_10_00_04/kernel/freertos/Source/tasks.c.obj
 .text.vTaskSetThreadLocalStoragePointer
                0x00000000       0x1c CMakeFiles/MSPM0G3507_BASIC.elf.dir/D_/tools/ti/mspm0_sdk_2_10_00_04/kernel/freertos/Source/tasks.c.obj
 .text.pvTaskGetThreadLocalStoragePointer
                0x00000000       0x20 CMakeFiles/MSPM0G3507_BASIC.elf.dir/D_/tools/ti/mspm0_sdk_2_10_00_04/kernel/freertos/Source/tasks.c.obj
 .text.vTaskGetInfo
                0x00000000       0xc4 CMakeFiles/MSPM0G3507_BASIC.elf.dir/D_/tools/ti/mspm0_sdk_2_10_00_04/kernel/freertos/Source/tasks.c.obj
 .text.uxTaskGetSystemState
                0x00000000      0x1e4 CMakeFiles/MSPM0G3507_BASIC.elf.dir/D_/tools/ti/mspm0_sdk_2_10_00_04/kernel/freertos/Source/tasks.c.obj
 .text.xTaskGetCurrentTaskHandle
                0x00000000        0xc CMakeFiles/MSPM0G3507_BASIC.elf.dir/D_/tools/ti/mspm0_sdk_2_10_00_04/kernel/freertos/Source/tasks.c.obj
 .text.xTaskGetCurrentTaskHandleForCore
                0x00000000       0x14 CMakeFiles/MSPM0G3507_BASIC.elf.dir/D_/tools/ti/mspm0_sdk_2_10_00_04/kernel/freertos/Source/tasks.c.obj
 .text.xTaskPriorityInherit
                0x00000000       0x94 CMakeFiles/MSPM0G3507_BASIC.elf.dir/D_/tools/ti/mspm0_sdk_2_10_00_04/kernel/freertos/Source/tasks.c.obj
 .text.xTaskPriorityDisinherit
                0x00000000       0x7c CMakeFiles/MSPM0G3507_BASIC.elf.dir/D_/tools/ti/mspm0_sdk_2_10_00_04/kernel/freertos/Source/tasks.c.obj
 .text.vTaskPriorityDisinheritAfterTimeout
                0x00000000       0x8c CMakeFiles/MSPM0G3507_BASIC.elf.dir/D_/tools/ti/mspm0_sdk_2_10_00_04/kernel/freertos/Source/tasks.c.obj
 .text.uxTaskResetEventItemValue
                0x00000000       0x18 CMakeFiles/MSPM0G3507_BASIC.elf.dir/D_/tools/ti/mspm0_sdk_2_10_00_04/kernel/freertos/Source/tasks.c.obj
 .text.pvTaskIncrementMutexHeldCount
                0x00000000       0x14 CMakeFiles/MSPM0G3507_BASIC.elf.dir/D_/tools/ti/mspm0_sdk_2_10_00_04/kernel/freertos/Source/tasks.c.obj
 .text.ulTaskGenericNotifyTake
                0x00000000       0xc4 CMakeFiles/MSPM0G3507_BASIC.elf.dir/D_/tools/ti/mspm0_sdk_2_10_00_04/kernel/freertos/Source/tasks.c.obj
 .text.xTaskGenericNotifyWait
                0x00000000       0xec CMakeFiles/MSPM0G3507_BASIC.elf.dir/D_/tools/ti/mspm0_sdk_2_10_00_04/kernel/freertos/Source/tasks.c.obj
 .text.xTaskGenericNotify
                0x00000000      0x124 CMakeFiles/MSPM0G3507_BASIC.elf.dir/D_/tools/ti/mspm0_sdk_2_10_00_04/kernel/freertos/Source/tasks.c.obj
 .rodata.xTaskGenericNotify
                0x00000000       0x14 CMakeFiles/MSPM0G3507_BASIC.elf.dir/D_/tools/ti/mspm0_sdk_2_10_00_04/kernel/freertos/Source/tasks.c.obj
 .text.xTaskGenericNotifyFromISR
                0x00000000      0x160 CMakeFiles/MSPM0G3507_BASIC.elf.dir/D_/tools/ti/mspm0_sdk_2_10_00_04/kernel/freertos/Source/tasks.c.obj
 .rodata.xTaskGenericNotifyFromISR
                0x00000000       0x14 CMakeFiles/MSPM0G3507_BASIC.elf.dir/D_/tools/ti/mspm0_sdk_2_10_00_04/kernel/freertos/Source/tasks.c.obj
 .text.vTaskGenericNotifyGiveFromISR
                0x00000000      0x10c CMakeFiles/MSPM0G3507_BASIC.elf.dir/D_/tools/ti/mspm0_sdk_2_10_00_04/kernel/freertos/Source/tasks.c.obj
 .text.xTaskGenericNotifyStateClear
                0x00000000       0x3c CMakeFiles/MSPM0G3507_BASIC.elf.dir/D_/tools/ti/mspm0_sdk_2_10_00_04/kernel/freertos/Source/tasks.c.obj
 .text.ulTaskGenericNotifyValueClear
                0x00000000       0x3c CMakeFiles/MSPM0G3507_BASIC.elf.dir/D_/tools/ti/mspm0_sdk_2_10_00_04/kernel/freertos/Source/tasks.c.obj
 .text.vTaskResetState
                0x00000000       0x64 CMakeFiles/MSPM0G3507_BASIC.elf.dir/D_/tools/ti/mspm0_sdk_2_10_00_04/kernel/freertos/Source/tasks.c.obj
 .text.xTimerCreate
                0x00000000       0x58 CMakeFiles/MSPM0G3507_BASIC.elf.dir/D_/tools/ti/mspm0_sdk_2_10_00_04/kernel/freertos/Source/timers.c.obj
 .text.xTimerCreateStatic
                0x00000000       0x64 CMakeFiles/MSPM0G3507_BASIC.elf.dir/D_/tools/ti/mspm0_sdk_2_10_00_04/kernel/freertos/Source/timers.c.obj
 .text.xTimerGenericCommandFromTask
                0x00000000       0x50 CMakeFiles/MSPM0G3507_BASIC.elf.dir/D_/tools/ti/mspm0_sdk_2_10_00_04/kernel/freertos/Source/timers.c.obj
 .text.xTimerGenericCommandFromISR
                0x00000000       0x3c CMakeFiles/MSPM0G3507_BASIC.elf.dir/D_/tools/ti/mspm0_sdk_2_10_00_04/kernel/freertos/Source/timers.c.obj
 .text.xTimerGetTimerDaemonTaskHandle
                0x00000000       0x14 CMakeFiles/MSPM0G3507_BASIC.elf.dir/D_/tools/ti/mspm0_sdk_2_10_00_04/kernel/freertos/Source/timers.c.obj
 .text.xTimerGetPeriod
                0x00000000        0xc CMakeFiles/MSPM0G3507_BASIC.elf.dir/D_/tools/ti/mspm0_sdk_2_10_00_04/kernel/freertos/Source/timers.c.obj
 .text.vTimerSetReloadMode
                0x00000000       0x2c CMakeFiles/MSPM0G3507_BASIC.elf.dir/D_/tools/ti/mspm0_sdk_2_10_00_04/kernel/freertos/Source/timers.c.obj
 .text.xTimerGetReloadMode
                0x00000000       0x20 CMakeFiles/MSPM0G3507_BASIC.elf.dir/D_/tools/ti/mspm0_sdk_2_10_00_04/kernel/freertos/Source/timers.c.obj
 .text.uxTimerGetReloadMode
                0x00000000       0x20 CMakeFiles/MSPM0G3507_BASIC.elf.dir/D_/tools/ti/mspm0_sdk_2_10_00_04/kernel/freertos/Source/timers.c.obj
 .text.xTimerGetExpiryTime
                0x00000000        0xc CMakeFiles/MSPM0G3507_BASIC.elf.dir/D_/tools/ti/mspm0_sdk_2_10_00_04/kernel/freertos/Source/timers.c.obj
 .text.xTimerGetStaticBuffer
                0x00000000       0x1c CMakeFiles/MSPM0G3507_BASIC.elf.dir/D_/tools/ti/mspm0_sdk_2_10_00_04/kernel/freertos/Source/timers.c.obj
 .text.pcTimerGetName
                0x00000000        0xc CMakeFiles/MSPM0G3507_BASIC.elf.dir/D_/tools/ti/mspm0_sdk_2_10_00_04/kernel/freertos/Source/timers.c.obj
 .text.xTimerIsTimerActive
                0x00000000       0x20 CMakeFiles/MSPM0G3507_BASIC.elf.dir/D_/tools/ti/mspm0_sdk_2_10_00_04/kernel/freertos/Source/timers.c.obj
 .text.pvTimerGetTimerID
                0x00000000       0x18 CMakeFiles/MSPM0G3507_BASIC.elf.dir/D_/tools/ti/mspm0_sdk_2_10_00_04/kernel/freertos/Source/timers.c.obj
 .text.vTimerSetTimerID
                0x00000000       0x1c CMakeFiles/MSPM0G3507_BASIC.elf.dir/D_/tools/ti/mspm0_sdk_2_10_00_04/kernel/freertos/Source/timers.c.obj
 .text.uxTimerGetTimerNumber
                0x00000000        0x4 CMakeFiles/MSPM0G3507_BASIC.elf.dir/D_/tools/ti/mspm0_sdk_2_10_00_04/kernel/freertos/Source/timers.c.obj
 .text.vTimerSetTimerNumber
                0x00000000        0x4 CMakeFiles/MSPM0G3507_BASIC.elf.dir/D_/tools/ti/mspm0_sdk_2_10_00_04/kernel/freertos/Source/timers.c.obj
 .text.vTimerResetState
                0x00000000       0x14 CMakeFiles/MSPM0G3507_BASIC.elf.dir/D_/tools/ti/mspm0_sdk_2_10_00_04/kernel/freertos/Source/timers.c.obj
 .text.xPortGetFreeHeapSize
                0x00000000        0xc CMakeFiles/MSPM0G3507_BASIC.elf.dir/D_/tools/ti/mspm0_sdk_2_10_00_04/kernel/freertos/Source/portable/MemMang/heap_4.c.obj
 .text.xPortGetMinimumEverFreeHeapSize
                0x00000000        0xc CMakeFiles/MSPM0G3507_BASIC.elf.dir/D_/tools/ti/mspm0_sdk_2_10_00_04/kernel/freertos/Source/portable/MemMang/heap_4.c.obj
 .text.xPortResetHeapMinimumEverFreeHeapSize
                0x00000000       0x14 CMakeFiles/MSPM0G3507_BASIC.elf.dir/D_/tools/ti/mspm0_sdk_2_10_00_04/kernel/freertos/Source/portable/MemMang/heap_4.c.obj
 .text.vPortInitialiseBlocks
                0x00000000        0x4 CMakeFiles/MSPM0G3507_BASIC.elf.dir/D_/tools/ti/mspm0_sdk_2_10_00_04/kernel/freertos/Source/portable/MemMang/heap_4.c.obj
 .text.pvPortCalloc
                0x00000000       0x50 CMakeFiles/MSPM0G3507_BASIC.elf.dir/D_/tools/ti/mspm0_sdk_2_10_00_04/kernel/freertos/Source/portable/MemMang/heap_4.c.obj
 .text.vPortGetHeapStats
                0x00000000       0x84 CMakeFiles/MSPM0G3507_BASIC.elf.dir/D_/tools/ti/mspm0_sdk_2_10_00_04/kernel/freertos/Source/portable/MemMang/heap_4.c.obj
 .text.vPortHeapResetState
                0x00000000       0x2c CMakeFiles/MSPM0G3507_BASIC.elf.dir/D_/tools/ti/mspm0_sdk_2_10_00_04/kernel/freertos/Source/portable/MemMang/heap_4.c.obj
 .text.vPortEndScheduler
                0x00000000       0x18 CMakeFiles/MSPM0G3507_BASIC.elf.dir/D_/tools/ti/mspm0_sdk_2_10_00_04/kernel/freertos/Source/portable/GCC/ARM_CM0/port.c.obj
 .text.xPortIsInsideInterrupt
                0x00000000        0xc CMakeFiles/MSPM0G3507_BASIC.elf.dir/D_/tools/ti/mspm0_sdk_2_10_00_04/kernel/freertos/Source/portable/GCC/ARM_CM0/port.c.obj
 .text.xIsPrivileged
                0x00000000       0x20 CMakeFiles/MSPM0G3507_BASIC.elf.dir/D_/tools/ti/mspm0_sdk_2_10_00_04/kernel/freertos/Source/portable/GCC/ARM_CM0/portasm.c.obj
 .text.vRaisePrivilege
                0x00000000       0x10 CMakeFiles/MSPM0G3507_BASIC.elf.dir/D_/tools/ti/mspm0_sdk_2_10_00_04/kernel/freertos/Source/portable/GCC/ARM_CM0/portasm.c.obj
 .text.vResetPrivilege
                0x00000000       0x10 CMakeFiles/MSPM0G3507_BASIC.elf.dir/D_/tools/ti/mspm0_sdk_2_10_00_04/kernel/freertos/Source/portable/GCC/ARM_CM0/portasm.c.obj
 .text.OSTaskInit
                0x00000000       0x3c app/libapp.a(robot.c.obj)
 .text.RobotTask
                0x00000000        0x4 app/libapp.a(robot.c.obj)
 .bss.uiTaskHandle
                0x00000000        0x4 app/libapp.a(robot.c.obj)
 .bss.daemonTaskHandle
                0x00000000        0x4 app/libapp.a(robot.c.obj)
 .bss.motorTaskHandle
                0x00000000        0x4 app/libapp.a(robot.c.obj)
 .bss.insTaskHandle
                0x00000000        0x4 app/libapp.a(robot.c.obj)
 .text.DWT_GetDeltaT
                0x00000000       0x40 bsp/libbsp.a(bsp_dwt.c.obj)
 .text.DWT_GetDeltaT64
                0x00000000       0x40 bsp/libbsp.a(bsp_dwt.c.obj)
 .text.DWT_SysTimeUpdate
                0x00000000        0x4 bsp/libbsp.a(bsp_dwt.c.obj)
 .text.DWT_GetTimeline_s
                0x00000000       0x24 bsp/libbsp.a(bsp_dwt.c.obj)
 .text.DWT_GetTimeline_us
                0x00000000       0x2c bsp/libbsp.a(bsp_dwt.c.obj)
 .text.DWT_Delay
                0x00000000       0x2c bsp/libbsp.a(bsp_dwt.c.obj)
 .text.PrintLog
                0x00000000       0x18 bsp/libbsp.a(bsp_log.c.obj)
 .rodata.Float2Str.str1.4
                0x00000000        0xe bsp/libbsp.a(bsp_log.c.obj)
 .text.Float2Str
                0x00000000       0x64 bsp/libbsp.a(bsp_log.c.obj)
 .text.DL_ADC12_getClockConfig
                0x00000000       0x30 D:/tools/ti/mspm0_sdk_2_10_00_04/source/ti/driverlib/lib/gcc/m0p/mspm0g1x0x_g3x0x/driverlib.a(dl_adc12.o)
 .text.DL_I2C_getClockConfig
                0x00000000       0x1c D:/tools/ti/mspm0_sdk_2_10_00_04/source/ti/driverlib/lib/gcc/m0p/mspm0g1x0x_g3x0x/driverlib.a(dl_i2c.o)
 .text.DL_I2C_fillControllerTXFIFO
                0x00000000       0x48 D:/tools/ti/mspm0_sdk_2_10_00_04/source/ti/driverlib/lib/gcc/m0p/mspm0g1x0x_g3x0x/driverlib.a(dl_i2c.o)
 .text.DL_I2C_flushControllerTXFIFO
                0x00000000       0x34 D:/tools/ti/mspm0_sdk_2_10_00_04/source/ti/driverlib/lib/gcc/m0p/mspm0g1x0x_g3x0x/driverlib.a(dl_i2c.o)
 .text.DL_I2C_flushControllerRXFIFO
                0x00000000       0x30 D:/tools/ti/mspm0_sdk_2_10_00_04/source/ti/driverlib/lib/gcc/m0p/mspm0g1x0x_g3x0x/driverlib.a(dl_i2c.o)
 .text.DL_I2C_fillTargetTXFIFO
                0x00000000       0x4c D:/tools/ti/mspm0_sdk_2_10_00_04/source/ti/driverlib/lib/gcc/m0p/mspm0g1x0x_g3x0x/driverlib.a(dl_i2c.o)
 .text.DL_I2C_flushTargetTXFIFO
                0x00000000       0x34 D:/tools/ti/mspm0_sdk_2_10_00_04/source/ti/driverlib/lib/gcc/m0p/mspm0g1x0x_g3x0x/driverlib.a(dl_i2c.o)
 .text.DL_I2C_flushTargetRXFIFO
                0x00000000       0x30 D:/tools/ti/mspm0_sdk_2_10_00_04/source/ti/driverlib/lib/gcc/m0p/mspm0g1x0x_g3x0x/driverlib.a(dl_i2c.o)
 .text.DL_I2C_transmitTargetDataBlocking
                0x00000000       0x24 D:/tools/ti/mspm0_sdk_2_10_00_04/source/ti/driverlib/lib/gcc/m0p/mspm0g1x0x_g3x0x/driverlib.a(dl_i2c.o)
 .text.DL_I2C_transmitTargetDataCheck
                0x00000000       0x24 D:/tools/ti/mspm0_sdk_2_10_00_04/source/ti/driverlib/lib/gcc/m0p/mspm0g1x0x_g3x0x/driverlib.a(dl_i2c.o)
 .text.DL_I2C_receiveTargetDataBlocking
                0x00000000       0x18 D:/tools/ti/mspm0_sdk_2_10_00_04/source/ti/driverlib/lib/gcc/m0p/mspm0g1x0x_g3x0x/driverlib.a(dl_i2c.o)
 .text.DL_I2C_receiveTargetDataCheck
                0x00000000       0x1c D:/tools/ti/mspm0_sdk_2_10_00_04/source/ti/driverlib/lib/gcc/m0p/mspm0g1x0x_g3x0x/driverlib.a(dl_i2c.o)
 .text.DL_SPI_getClockConfig
                0x00000000       0x14 D:/tools/ti/mspm0_sdk_2_10_00_04/source/ti/driverlib/lib/gcc/m0p/mspm0g1x0x_g3x0x/driverlib.a(dl_spi.o)
 .text.DL_SPI_receiveDataBlocking8
                0x00000000       0x1c D:/tools/ti/mspm0_sdk_2_10_00_04/source/ti/driverlib/lib/gcc/m0p/mspm0g1x0x_g3x0x/driverlib.a(dl_spi.o)
 .text.DL_SPI_receiveDataBlocking16
                0x00000000       0x1c D:/tools/ti/mspm0_sdk_2_10_00_04/source/ti/driverlib/lib/gcc/m0p/mspm0g1x0x_g3x0x/driverlib.a(dl_spi.o)
 .text.DL_SPI_receiveDataBlocking32
                0x00000000       0x18 D:/tools/ti/mspm0_sdk_2_10_00_04/source/ti/driverlib/lib/gcc/m0p/mspm0g1x0x_g3x0x/driverlib.a(dl_spi.o)
 .text.DL_SPI_transmitDataBlocking8
                0x00000000       0x24 D:/tools/ti/mspm0_sdk_2_10_00_04/source/ti/driverlib/lib/gcc/m0p/mspm0g1x0x_g3x0x/driverlib.a(dl_spi.o)
 .text.DL_SPI_transmitDataBlocking16
                0x00000000       0x24 D:/tools/ti/mspm0_sdk_2_10_00_04/source/ti/driverlib/lib/gcc/m0p/mspm0g1x0x_g3x0x/driverlib.a(dl_spi.o)
 .text.DL_SPI_transmitDataBlocking32
                0x00000000       0x24 D:/tools/ti/mspm0_sdk_2_10_00_04/source/ti/driverlib/lib/gcc/m0p/mspm0g1x0x_g3x0x/driverlib.a(dl_spi.o)
 .text.DL_SPI_receiveDataCheck8
                0x00000000       0x20 D:/tools/ti/mspm0_sdk_2_10_00_04/source/ti/driverlib/lib/gcc/m0p/mspm0g1x0x_g3x0x/driverlib.a(dl_spi.o)
 .text.DL_SPI_receiveDataCheck16
                0x00000000       0x20 D:/tools/ti/mspm0_sdk_2_10_00_04/source/ti/driverlib/lib/gcc/m0p/mspm0g1x0x_g3x0x/driverlib.a(dl_spi.o)
 .text.DL_SPI_receiveDataCheck32
                0x00000000       0x20 D:/tools/ti/mspm0_sdk_2_10_00_04/source/ti/driverlib/lib/gcc/m0p/mspm0g1x0x_g3x0x/driverlib.a(dl_spi.o)
 .text.DL_SPI_transmitDataCheck8
                0x00000000       0x1c D:/tools/ti/mspm0_sdk_2_10_00_04/source/ti/driverlib/lib/gcc/m0p/mspm0g1x0x_g3x0x/driverlib.a(dl_spi.o)
 .text.DL_SPI_transmitDataCheck16
                0x00000000       0x1c D:/tools/ti/mspm0_sdk_2_10_00_04/source/ti/driverlib/lib/gcc/m0p/mspm0g1x0x_g3x0x/driverlib.a(dl_spi.o)
 .text.DL_SPI_transmitDataCheck32
                0x00000000       0x1c D:/tools/ti/mspm0_sdk_2_10_00_04/source/ti/driverlib/lib/gcc/m0p/mspm0g1x0x_g3x0x/driverlib.a(dl_spi.o)
 .text.DL_SPI_drainRXFIFO8
                0x00000000       0x2c D:/tools/ti/mspm0_sdk_2_10_00_04/source/ti/driverlib/lib/gcc/m0p/mspm0g1x0x_g3x0x/driverlib.a(dl_spi.o)
 .text.DL_SPI_drainRXFIFO16
                0x00000000       0x34 D:/tools/ti/mspm0_sdk_2_10_00_04/source/ti/driverlib/lib/gcc/m0p/mspm0g1x0x_g3x0x/driverlib.a(dl_spi.o)
 .text.DL_SPI_drainRXFIFO32
                0x00000000       0x34 D:/tools/ti/mspm0_sdk_2_10_00_04/source/ti/driverlib/lib/gcc/m0p/mspm0g1x0x_g3x0x/driverlib.a(dl_spi.o)
 .text.DL_SPI_fillTXFIFO8
                0x00000000       0x2c D:/tools/ti/mspm0_sdk_2_10_00_04/source/ti/driverlib/lib/gcc/m0p/mspm0g1x0x_g3x0x/driverlib.a(dl_spi.o)
 .text.DL_SPI_fillTXFIFO16
                0x00000000       0x2c D:/tools/ti/mspm0_sdk_2_10_00_04/source/ti/driverlib/lib/gcc/m0p/mspm0g1x0x_g3x0x/driverlib.a(dl_spi.o)
 .text.DL_SPI_saveConfiguration
                0x00000000       0x70 D:/tools/ti/mspm0_sdk_2_10_00_04/source/ti/driverlib/lib/gcc/m0p/mspm0g1x0x_g3x0x/driverlib.a(dl_spi.o)
 .text.DL_SPI_restoreConfiguration
                0x00000000       0x7c D:/tools/ti/mspm0_sdk_2_10_00_04/source/ti/driverlib/lib/gcc/m0p/mspm0g1x0x_g3x0x/driverlib.a(dl_spi.o)
 .text.DL_SPI_fillTXFIFO32
                0x00000000       0x2c D:/tools/ti/mspm0_sdk_2_10_00_04/source/ti/driverlib/lib/gcc/m0p/mspm0g1x0x_g3x0x/driverlib.a(dl_spi.o)
 .text.DL_Timer_getInChanConfig
                0x00000000       0x4c D:/tools/ti/mspm0_sdk_2_10_00_04/source/ti/driverlib/lib/gcc/m0p/mspm0g1x0x_g3x0x/driverlib.a(dl_timer.o)
 .text.DL_Timer_getClockConfig
                0x00000000       0x20 D:/tools/ti/mspm0_sdk_2_10_00_04/source/ti/driverlib/lib/gcc/m0p/mspm0g1x0x_g3x0x/driverlib.a(dl_timer.o)
 .text.DL_Timer_initCaptureMode
                0x00000000      0x110 D:/tools/ti/mspm0_sdk_2_10_00_04/source/ti/driverlib/lib/gcc/m0p/mspm0g1x0x_g3x0x/driverlib.a(dl_timer.o)
 .rodata.DL_Timer_initCaptureMode
                0x00000000       0x18 D:/tools/ti/mspm0_sdk_2_10_00_04/source/ti/driverlib/lib/gcc/m0p/mspm0g1x0x_g3x0x/driverlib.a(dl_timer.o)
 .text.DL_Timer_initCaptureTriggerMode
                0x00000000       0x90 D:/tools/ti/mspm0_sdk_2_10_00_04/source/ti/driverlib/lib/gcc/m0p/mspm0g1x0x_g3x0x/driverlib.a(dl_timer.o)
 .text.DL_Timer_initCaptureCombinedMode
                0x00000000       0xe0 D:/tools/ti/mspm0_sdk_2_10_00_04/source/ti/driverlib/lib/gcc/m0p/mspm0g1x0x_g3x0x/driverlib.a(dl_timer.o)
 .text.DL_Timer_initCompareMode
                0x00000000       0xac D:/tools/ti/mspm0_sdk_2_10_00_04/source/ti/driverlib/lib/gcc/m0p/mspm0g1x0x_g3x0x/driverlib.a(dl_timer.o)
 .text.DL_Timer_initCompareTriggerMode
                0x00000000       0x78 D:/tools/ti/mspm0_sdk_2_10_00_04/source/ti/driverlib/lib/gcc/m0p/mspm0g1x0x_g3x0x/driverlib.a(dl_timer.o)
 .text.DL_Timer_getCaptureCompareValue
                0x00000000       0x14 D:/tools/ti/mspm0_sdk_2_10_00_04/source/ti/driverlib/lib/gcc/m0p/mspm0g1x0x_g3x0x/driverlib.a(dl_timer.o)
 .text.DL_Timer_setCaptureCompareCtl
                0x00000000       0x24 D:/tools/ti/mspm0_sdk_2_10_00_04/source/ti/driverlib/lib/gcc/m0p/mspm0g1x0x_g3x0x/driverlib.a(dl_timer.o)
 .text.DL_Timer_getCaptureCompareCtl
                0x00000000       0x1c D:/tools/ti/mspm0_sdk_2_10_00_04/source/ti/driverlib/lib/gcc/m0p/mspm0g1x0x_g3x0x/driverlib.a(dl_timer.o)
 .text.DL_Timer_setSecondCompSrcDn
                0x00000000       0x1c D:/tools/ti/mspm0_sdk_2_10_00_04/source/ti/driverlib/lib/gcc/m0p/mspm0g1x0x_g3x0x/driverlib.a(dl_timer.o)
 .text.DL_Timer_getSecondCompSrcDn
                0x00000000       0x18 D:/tools/ti/mspm0_sdk_2_10_00_04/source/ti/driverlib/lib/gcc/m0p/mspm0g1x0x_g3x0x/driverlib.a(dl_timer.o)
 .text.DL_Timer_setSecondCompSrcUp
                0x00000000       0x20 D:/tools/ti/mspm0_sdk_2_10_00_04/source/ti/driverlib/lib/gcc/m0p/mspm0g1x0x_g3x0x/driverlib.a(dl_timer.o)
 .text.DL_Timer_getSecondCompSrcUp
                0x00000000       0x18 D:/tools/ti/mspm0_sdk_2_10_00_04/source/ti/driverlib/lib/gcc/m0p/mspm0g1x0x_g3x0x/driverlib.a(dl_timer.o)
 .text.DL_Timer_setSecondCompActionDn
                0x00000000       0x20 D:/tools/ti/mspm0_sdk_2_10_00_04/source/ti/driverlib/lib/gcc/m0p/mspm0g1x0x_g3x0x/driverlib.a(dl_timer.o)
 .text.DL_Timer_getSecondCompActionDn
                0x00000000       0x18 D:/tools/ti/mspm0_sdk_2_10_00_04/source/ti/driverlib/lib/gcc/m0p/mspm0g1x0x_g3x0x/driverlib.a(dl_timer.o)
 .text.DL_Timer_setSecondCompActionUp
                0x00000000       0x20 D:/tools/ti/mspm0_sdk_2_10_00_04/source/ti/driverlib/lib/gcc/m0p/mspm0g1x0x_g3x0x/driverlib.a(dl_timer.o)
 .text.DL_Timer_getSecondCompActionUp
                0x00000000       0x18 D:/tools/ti/mspm0_sdk_2_10_00_04/source/ti/driverlib/lib/gcc/m0p/mspm0g1x0x_g3x0x/driverlib.a(dl_timer.o)
 .text.DL_Timer_enableSuppressionOfCompEvent
                0x00000000       0x1c D:/tools/ti/mspm0_sdk_2_10_00_04/source/ti/driverlib/lib/gcc/m0p/mspm0g1x0x_g3x0x/driverlib.a(dl_timer.o)
 .text.DL_Timer_disableSuppressionOfCompEvent
                0x00000000       0x1c D:/tools/ti/mspm0_sdk_2_10_00_04/source/ti/driverlib/lib/gcc/m0p/mspm0g1x0x_g3x0x/driverlib.a(dl_timer.o)
 .text.DL_Timer_getCaptCompUpdateMethod
                0x00000000       0x18 D:/tools/ti/mspm0_sdk_2_10_00_04/source/ti/driverlib/lib/gcc/m0p/mspm0g1x0x_g3x0x/driverlib.a(dl_timer.o)
 .text.DL_Timer_setCaptCompActUpdateMethod
                0x00000000       0x20 D:/tools/ti/mspm0_sdk_2_10_00_04/source/ti/driverlib/lib/gcc/m0p/mspm0g1x0x_g3x0x/driverlib.a(dl_timer.o)
 .text.DL_Timer_getCaptCompActUpdateMethod
                0x00000000       0x18 D:/tools/ti/mspm0_sdk_2_10_00_04/source/ti/driverlib/lib/gcc/m0p/mspm0g1x0x_g3x0x/driverlib.a(dl_timer.o)
 .text.DL_Timer_getCaptureCompareOutCtl
                0x00000000       0x14 D:/tools/ti/mspm0_sdk_2_10_00_04/source/ti/driverlib/lib/gcc/m0p/mspm0g1x0x_g3x0x/driverlib.a(dl_timer.o)
 .text.DL_Timer_setCaptureCompareAction
                0x00000000       0x20 D:/tools/ti/mspm0_sdk_2_10_00_04/source/ti/driverlib/lib/gcc/m0p/mspm0g1x0x_g3x0x/driverlib.a(dl_timer.o)
 .text.DL_Timer_getCaptureCompareAction
                0x00000000       0x1c D:/tools/ti/mspm0_sdk_2_10_00_04/source/ti/driverlib/lib/gcc/m0p/mspm0g1x0x_g3x0x/driverlib.a(dl_timer.o)
 .text.DL_Timer_overrideCCPOut
                0x00000000       0x20 D:/tools/ti/mspm0_sdk_2_10_00_04/source/ti/driverlib/lib/gcc/m0p/mspm0g1x0x_g3x0x/driverlib.a(dl_timer.o)
 .text.DL_Timer_setCaptureCompareInput
                0x00000000       0x20 D:/tools/ti/mspm0_sdk_2_10_00_04/source/ti/driverlib/lib/gcc/m0p/mspm0g1x0x_g3x0x/driverlib.a(dl_timer.o)
 .text.DL_Timer_getCaptureCompareInput
                0x00000000       0x14 D:/tools/ti/mspm0_sdk_2_10_00_04/source/ti/driverlib/lib/gcc/m0p/mspm0g1x0x_g3x0x/driverlib.a(dl_timer.o)
 .text.DL_Timer_setCaptureCompareInputFilter
                0x00000000       0x20 D:/tools/ti/mspm0_sdk_2_10_00_04/source/ti/driverlib/lib/gcc/m0p/mspm0g1x0x_g3x0x/driverlib.a(dl_timer.o)
 .text.DL_Timer_getCaptureCompareInputFilter
                0x00000000       0x18 D:/tools/ti/mspm0_sdk_2_10_00_04/source/ti/driverlib/lib/gcc/m0p/mspm0g1x0x_g3x0x/driverlib.a(dl_timer.o)
 .text.DL_Timer_enableCaptureCompareInputFilter
                0x00000000       0x18 D:/tools/ti/mspm0_sdk_2_10_00_04/source/ti/driverlib/lib/gcc/m0p/mspm0g1x0x_g3x0x/driverlib.a(dl_timer.o)
 .text.DL_Timer_disableCaptureCompareInputFilter
                0x00000000       0x1c D:/tools/ti/mspm0_sdk_2_10_00_04/source/ti/driverlib/lib/gcc/m0p/mspm0g1x0x_g3x0x/driverlib.a(dl_timer.o)
 .text.DL_Timer_isCaptureCompareInputFilterEnabled
                0x00000000       0x14 D:/tools/ti/mspm0_sdk_2_10_00_04/source/ti/driverlib/lib/gcc/m0p/mspm0g1x0x_g3x0x/driverlib.a(dl_timer.o)
 .text.DL_Timer_saveConfiguration
                0x00000000      0x1a4 D:/tools/ti/mspm0_sdk_2_10_00_04/source/ti/driverlib/lib/gcc/m0p/mspm0g1x0x_g3x0x/driverlib.a(dl_timer.o)
 .text.DL_Timer_restoreConfiguration
                0x00000000      0x1c0 D:/tools/ti/mspm0_sdk_2_10_00_04/source/ti/driverlib/lib/gcc/m0p/mspm0g1x0x_g3x0x/driverlib.a(dl_timer.o)
 .text.DL_Timer_setFaultSourceConfig
                0x00000000       0x2c D:/tools/ti/mspm0_sdk_2_10_00_04/source/ti/driverlib/lib/gcc/m0p/mspm0g1x0x_g3x0x/driverlib.a(dl_timer.o)
 .text.DL_Timer_getFaultSourceConfig
                0x00000000       0x20 D:/tools/ti/mspm0_sdk_2_10_00_04/source/ti/driverlib/lib/gcc/m0p/mspm0g1x0x_g3x0x/driverlib.a(dl_timer.o)
 .text.DL_TimerA_saveConfiguration
                0x00000000      0x1e0 D:/tools/ti/mspm0_sdk_2_10_00_04/source/ti/driverlib/lib/gcc/m0p/mspm0g1x0x_g3x0x/driverlib.a(dl_timer.o)
 .text.DL_TimerA_restoreConfiguration
                0x00000000      0x1dc D:/tools/ti/mspm0_sdk_2_10_00_04/source/ti/driverlib/lib/gcc/m0p/mspm0g1x0x_g3x0x/driverlib.a(dl_timer.o)
 .text.DL_Timer_configQEIHallInputMode
                0x00000000       0x30 D:/tools/ti/mspm0_sdk_2_10_00_04/source/ti/driverlib/lib/gcc/m0p/mspm0g1x0x_g3x0x/driverlib.a(dl_timer.o)
 .rodata.CSWTCH.78
                0x00000000        0x4 D:/tools/ti/mspm0_sdk_2_10_00_04/source/ti/driverlib/lib/gcc/m0p/mspm0g1x0x_g3x0x/driverlib.a(dl_timer.o)
 .text.DL_UART_getClockConfig
                0x00000000       0x14 D:/tools/ti/mspm0_sdk_2_10_00_04/source/ti/driverlib/lib/gcc/m0p/mspm0g1x0x_g3x0x/driverlib.a(dl_uart.o)
 .text.DL_UART_configBaudRate
                0x00000000       0xb0 D:/tools/ti/mspm0_sdk_2_10_00_04/source/ti/driverlib/lib/gcc/m0p/mspm0g1x0x_g3x0x/driverlib.a(dl_uart.o)
 .text.DL_UART_configIrDAMode
                0x00000000       0x40 D:/tools/ti/mspm0_sdk_2_10_00_04/source/ti/driverlib/lib/gcc/m0p/mspm0g1x0x_g3x0x/driverlib.a(dl_uart.o)
 .text.DL_UART_setIrDAPulseLength
                0x00000000       0x34 D:/tools/ti/mspm0_sdk_2_10_00_04/source/ti/driverlib/lib/gcc/m0p/mspm0g1x0x_g3x0x/driverlib.a(dl_uart.o)
 .text.DL_UART_receiveDataBlocking
                0x00000000       0x1c D:/tools/ti/mspm0_sdk_2_10_00_04/source/ti/driverlib/lib/gcc/m0p/mspm0g1x0x_g3x0x/driverlib.a(dl_uart.o)
 .text.DL_UART_transmitDataBlocking
                0x00000000       0x24 D:/tools/ti/mspm0_sdk_2_10_00_04/source/ti/driverlib/lib/gcc/m0p/mspm0g1x0x_g3x0x/driverlib.a(dl_uart.o)
 .text.DL_UART_receiveDataCheck
                0x00000000       0x20 D:/tools/ti/mspm0_sdk_2_10_00_04/source/ti/driverlib/lib/gcc/m0p/mspm0g1x0x_g3x0x/driverlib.a(dl_uart.o)
 .text.DL_UART_transmitDataCheck
                0x00000000       0x1c D:/tools/ti/mspm0_sdk_2_10_00_04/source/ti/driverlib/lib/gcc/m0p/mspm0g1x0x_g3x0x/driverlib.a(dl_uart.o)
 .text.DL_UART_drainRXFIFO
                0x00000000       0x2c D:/tools/ti/mspm0_sdk_2_10_00_04/source/ti/driverlib/lib/gcc/m0p/mspm0g1x0x_g3x0x/driverlib.a(dl_uart.o)
 .text.DL_UART_fillTXFIFO
                0x00000000       0x2c D:/tools/ti/mspm0_sdk_2_10_00_04/source/ti/driverlib/lib/gcc/m0p/mspm0g1x0x_g3x0x/driverlib.a(dl_uart.o)
 .text.DL_UART_Main_saveConfiguration
                0x00000000       0x84 D:/tools/ti/mspm0_sdk_2_10_00_04/source/ti/driverlib/lib/gcc/m0p/mspm0g1x0x_g3x0x/driverlib.a(dl_uart.o)
 .text.DL_UART_Main_restoreConfiguration
                0x00000000       0x90 D:/tools/ti/mspm0_sdk_2_10_00_04/source/ti/driverlib/lib/gcc/m0p/mspm0g1x0x_g3x0x/driverlib.a(dl_uart.o)
 .text.DL_UART_Extend_saveConfiguration
                0x00000000       0xa8 D:/tools/ti/mspm0_sdk_2_10_00_04/source/ti/driverlib/lib/gcc/m0p/mspm0g1x0x_g3x0x/driverlib.a(dl_uart.o)
 .text.DL_UART_Extend_restoreConfiguration
                0x00000000       0xc0 D:/tools/ti/mspm0_sdk_2_10_00_04/source/ti/driverlib/lib/gcc/m0p/mspm0g1x0x_g3x0x/driverlib.a(dl_uart.o)
 .text.__fp_lock
                0x00000000       0x18 D:/Program Files/STM32CubeCLT_1.21.0/GNU-tools-for-STM32/bin/../lib/gcc/arm-none-eabi/14.3.1/../../../../arm-none-eabi/lib/thumb/v6-m/nofp\libg_nano.a(libc_a-findfp.o)
 .text.__fp_unlock
                0x00000000       0x18 D:/Program Files/STM32CubeCLT_1.21.0/GNU-tools-for-STM32/bin/../lib/gcc/arm-none-eabi/14.3.1/../../../../arm-none-eabi/lib/thumb/v6-m/nofp\libg_nano.a(libc_a-findfp.o)
 .text.__sfp    0x00000000       0xa8 D:/Program Files/STM32CubeCLT_1.21.0/GNU-tools-for-STM32/bin/../lib/gcc/arm-none-eabi/14.3.1/../../../../arm-none-eabi/lib/thumb/v6-m/nofp\libg_nano.a(libc_a-findfp.o)
 .text.__fp_lock_all
                0x00000000       0x1c D:/Program Files/STM32CubeCLT_1.21.0/GNU-tools-for-STM32/bin/../lib/gcc/arm-none-eabi/14.3.1/../../../../arm-none-eabi/lib/thumb/v6-m/nofp\libg_nano.a(libc_a-findfp.o)
 .text.__fp_unlock_all
                0x00000000       0x1c D:/Program Files/STM32CubeCLT_1.21.0/GNU-tools-for-STM32/bin/../lib/gcc/arm-none-eabi/14.3.1/../../../../arm-none-eabi/lib/thumb/v6-m/nofp\libg_nano.a(libc_a-findfp.o)
 .text._sprintf_r
                0x00000000       0x3c D:/Program Files/STM32CubeCLT_1.21.0/GNU-tools-for-STM32/bin/../lib/gcc/arm-none-eabi/14.3.1/../../../../arm-none-eabi/lib/thumb/v6-m/nofp\libg_nano.a(libc_a-sprintf.o)
 .text.sprintf  0x00000000       0x44 D:/Program Files/STM32CubeCLT_1.21.0/GNU-tools-for-STM32/bin/../lib/gcc/arm-none-eabi/14.3.1/../../../../arm-none-eabi/lib/thumb/v6-m/nofp\libg_nano.a(libc_a-sprintf.o)
 .text.__seofread
                0x00000000        0x4 D:/Program Files/STM32CubeCLT_1.21.0/GNU-tools-for-STM32/bin/../lib/gcc/arm-none-eabi/14.3.1/../../../../arm-none-eabi/lib/thumb/v6-m/nofp\libg_nano.a(libc_a-stdio.o)
 .text._vprintf_r
                0x00000000        0xe D:/Program Files/STM32CubeCLT_1.21.0/GNU-tools-for-STM32/bin/../lib/gcc/arm-none-eabi/14.3.1/../../../../arm-none-eabi/lib/thumb/v6-m/nofp\libg_nano.a(libc_a-vprintf.o)
 .text.__retarget_lock_init
                0x00000000        0x2 D:/Program Files/STM32CubeCLT_1.21.0/GNU-tools-for-STM32/bin/../lib/gcc/arm-none-eabi/14.3.1/../../../../arm-none-eabi/lib/thumb/v6-m/nofp\libg_nano.a(libc_a-lock.o)
 .text.__retarget_lock_close
                0x00000000        0x2 D:/Program Files/STM32CubeCLT_1.21.0/GNU-tools-for-STM32/bin/../lib/gcc/arm-none-eabi/14.3.1/../../../../arm-none-eabi/lib/thumb/v6-m/nofp\libg_nano.a(libc_a-lock.o)
 .text.__retarget_lock_close_recursive
                0x00000000        0x2 D:/Program Files/STM32CubeCLT_1.21.0/GNU-tools-for-STM32/bin/../lib/gcc/arm-none-eabi/14.3.1/../../../../arm-none-eabi/lib/thumb/v6-m/nofp\libg_nano.a(libc_a-lock.o)
 .text.__retarget_lock_acquire
                0x00000000        0x2 D:/Program Files/STM32CubeCLT_1.21.0/GNU-tools-for-STM32/bin/../lib/gcc/arm-none-eabi/14.3.1/../../../../arm-none-eabi/lib/thumb/v6-m/nofp\libg_nano.a(libc_a-lock.o)
 .text.__retarget_lock_try_acquire
                0x00000000        0x4 D:/Program Files/STM32CubeCLT_1.21.0/GNU-tools-for-STM32/bin/../lib/gcc/arm-none-eabi/14.3.1/../../../../arm-none-eabi/lib/thumb/v6-m/nofp\libg_nano.a(libc_a-lock.o)
 .text.__retarget_lock_try_acquire_recursive
                0x00000000        0x4 D:/Program Files/STM32CubeCLT_1.21.0/GNU-tools-for-STM32/bin/../lib/gcc/arm-none-eabi/14.3.1/../../../../arm-none-eabi/lib/thumb/v6-m/nofp\libg_nano.a(libc_a-lock.o)
 .text.__retarget_lock_release
                0x00000000        0x2 D:/Program Files/STM32CubeCLT_1.21.0/GNU-tools-for-STM32/bin/../lib/gcc/arm-none-eabi/14.3.1/../../../../arm-none-eabi/lib/thumb/v6-m/nofp\libg_nano.a(libc_a-lock.o)
 .bss.__lock___arc4random_mutex
                0x00000000        0x1 D:/Program Files/STM32CubeCLT_1.21.0/GNU-tools-for-STM32/bin/../lib/gcc/arm-none-eabi/14.3.1/../../../../arm-none-eabi/lib/thumb/v6-m/nofp\libg_nano.a(libc_a-lock.o)
 .bss.__lock___dd_hash_mutex
                0x00000000        0x1 D:/Program Files/STM32CubeCLT_1.21.0/GNU-tools-for-STM32/bin/../lib/gcc/arm-none-eabi/14.3.1/../../../../arm-none-eabi/lib/thumb/v6-m/nofp\libg_nano.a(libc_a-lock.o)
 .bss.__lock___tz_mutex
                0x00000000        0x1 D:/Program Files/STM32CubeCLT_1.21.0/GNU-tools-for-STM32/bin/../lib/gcc/arm-none-eabi/14.3.1/../../../../arm-none-eabi/lib/thumb/v6-m/nofp\libg_nano.a(libc_a-lock.o)
 .bss.__lock___env_recursive_mutex
                0x00000000        0x1 D:/Program Files/STM32CubeCLT_1.21.0/GNU-tools-for-STM32/bin/../lib/gcc/arm-none-eabi/14.3.1/../../../../arm-none-eabi/lib/thumb/v6-m/nofp\libg_nano.a(libc_a-lock.o)
 .bss.__lock___at_quick_exit_mutex
                0x00000000        0x1 D:/Program Files/STM32CubeCLT_1.21.0/GNU-tools-for-STM32/bin/../lib/gcc/arm-none-eabi/14.3.1/../../../../arm-none-eabi/lib/thumb/v6-m/nofp\libg_nano.a(libc_a-lock.o)
 .bss.__lock___atexit_recursive_mutex
                0x00000000        0x1 D:/Program Files/STM32CubeCLT_1.21.0/GNU-tools-for-STM32/bin/../lib/gcc/arm-none-eabi/14.3.1/../../../../arm-none-eabi/lib/thumb/v6-m/nofp\libg_nano.a(libc_a-lock.o)
 .text.__ssputs_r
                0x00000000       0xc8 D:/Program Files/STM32CubeCLT_1.21.0/GNU-tools-for-STM32/bin/../lib/gcc/arm-none-eabi/14.3.1/../../../../arm-none-eabi/lib/thumb/v6-m/nofp\libg_nano.a(libc_a-nano-svfprintf.o)
 .text.__ssprint_r
                0x00000000       0xf8 D:/Program Files/STM32CubeCLT_1.21.0/GNU-tools-for-STM32/bin/../lib/gcc/arm-none-eabi/14.3.1/../../../../arm-none-eabi/lib/thumb/v6-m/nofp\libg_nano.a(libc_a-nano-svfprintf.o)
 .rodata._svfprintf_r.str1.1
                0x00000000       0x11 D:/Program Files/STM32CubeCLT_1.21.0/GNU-tools-for-STM32/bin/../lib/gcc/arm-none-eabi/14.3.1/../../../../arm-none-eabi/lib/thumb/v6-m/nofp\libg_nano.a(libc_a-nano-svfprintf.o)
 .text._svfprintf_r
                0x00000000      0x1f4 D:/Program Files/STM32CubeCLT_1.21.0/GNU-tools-for-STM32/bin/../lib/gcc/arm-none-eabi/14.3.1/../../../../arm-none-eabi/lib/thumb/v6-m/nofp\libg_nano.a(libc_a-nano-svfprintf.o)
 .text.__sprint_r
                0x00000000       0x20 D:/Program Files/STM32CubeCLT_1.21.0/GNU-tools-for-STM32/bin/../lib/gcc/arm-none-eabi/14.3.1/../../../../arm-none-eabi/lib/thumb/v6-m/nofp\libg_nano.a(libc_a-nano-vfprintf.o)
 .text.vfprintf
                0x00000000       0x18 D:/Program Files/STM32CubeCLT_1.21.0/GNU-tools-for-STM32/bin/../lib/gcc/arm-none-eabi/14.3.1/../../../../arm-none-eabi/lib/thumb/v6-m/nofp\libg_nano.a(libc_a-nano-vfprintf.o)
 .text.fflush   0x00000000       0x30 D:/Program Files/STM32CubeCLT_1.21.0/GNU-tools-for-STM32/bin/../lib/gcc/arm-none-eabi/14.3.1/../../../../arm-none-eabi/lib/thumb/v6-m/nofp\libg_nano.a(libc_a-fflush.o)
 .text.__sfvwrite_r
                0x00000000      0x2c4 D:/Program Files/STM32CubeCLT_1.21.0/GNU-tools-for-STM32/bin/../lib/gcc/arm-none-eabi/14.3.1/../../../../arm-none-eabi/lib/thumb/v6-m/nofp\libg_nano.a(libc_a-fvwrite.o)
 .text.__swbuf  0x00000000       0x14 D:/Program Files/STM32CubeCLT_1.21.0/GNU-tools-for-STM32/bin/../lib/gcc/arm-none-eabi/14.3.1/../../../../arm-none-eabi/lib/thumb/v6-m/nofp\libg_nano.a(libc_a-wbuf.o)
 .text.memmove  0x00000000       0x24 D:/Program Files/STM32CubeCLT_1.21.0/GNU-tools-for-STM32/bin/../lib/gcc/arm-none-eabi/14.3.1/../../../../arm-none-eabi/lib/thumb/v6-m/nofp\libg_nano.a(libc_a-memmove.o)
 .text._realloc_r
                0x00000000       0x60 D:/Program Files/STM32CubeCLT_1.21.0/GNU-tools-for-STM32/bin/../lib/gcc/arm-none-eabi/14.3.1/../../../../arm-none-eabi/lib/thumb/v6-m/nofp\libg_nano.a(libc_a-reallocr.o)
 .text._malloc_usable_size_r
                0x00000000       0x10 D:/Program Files/STM32CubeCLT_1.21.0/GNU-tools-for-STM32/bin/../lib/gcc/arm-none-eabi/14.3.1/../../../../arm-none-eabi/lib/thumb/v6-m/nofp\libg_nano.a(libc_a-msizer.o)

Memory Configuration

Name             Origin             Length             Attributes
FLASH            0x00000000         0x00020000         xr
SRAM             0x20200000         0x00008000         xrw
BCR_CONFIG       0x41c00000         0x000000ff         r
BSL_CONFIG       0x41c00100         0x00000080         r
*default*        0x00000000         0xffffffff

Linker script and memory map

                0x00000000                        _Min_Heap_Size = 0x0
                0x00000080                        _Min_Stack_Size = 0x80
                0x00000000                        PROVIDE (_intvecs_base_address = DEFINED (_intvecs_base_address)?_intvecs_base_address:0x0)

.intvecs        0x00000000       0xc0
 *(.intvecs)
 .intvecs       0x00000000       0xc0 CMakeFiles/MSPM0G3507_BASIC.elf.dir/D_/tools/ti/mspm0_sdk_2_10_00_04/source/ti/devices/msp/m0p/startup_system_files/gcc/startup_mspm0g350x_gcc.c.obj
                0x00000000                interruptVectors
                0x20200000                        PROVIDE (_vtable_base_address = DEFINED (_vtable_base_address)?_vtable_base_address:0x20200000)

.vtable
 *(.vtable)

.text           0x000000c0     0x5e50
 CREATE_OBJECT_SYMBOLS
 *(.text)
 .text          0x000000c0        0x0 CMakeFiles/MSPM0G3507_BASIC.elf.dir/empty.c.obj
 .text          0x000000c0        0x0 CMakeFiles/MSPM0G3507_BASIC.elf.dir/app/syscalls_stub.c.obj
 .text          0x000000c0        0x0 CMakeFiles/MSPM0G3507_BASIC.elf.dir/syscfg/ti_msp_dl_config.c.obj
 .text          0x000000c0        0x0 CMakeFiles/MSPM0G3507_BASIC.elf.dir/D_/tools/ti/mspm0_sdk_2_10_00_04/source/ti/devices/msp/m0p/startup_system_files/gcc/startup_mspm0g350x_gcc.c.obj
 .text          0x000000c0        0x0 CMakeFiles/MSPM0G3507_BASIC.elf.dir/D_/tools/ti/mspm0_sdk_2_10_00_04/kernel/freertos/Source/croutine.c.obj
 .text          0x000000c0        0x0 CMakeFiles/MSPM0G3507_BASIC.elf.dir/D_/tools/ti/mspm0_sdk_2_10_00_04/kernel/freertos/Source/event_groups.c.obj
 .text          0x000000c0        0x0 CMakeFiles/MSPM0G3507_BASIC.elf.dir/D_/tools/ti/mspm0_sdk_2_10_00_04/kernel/freertos/Source/list.c.obj
 .text          0x000000c0        0x0 CMakeFiles/MSPM0G3507_BASIC.elf.dir/D_/tools/ti/mspm0_sdk_2_10_00_04/kernel/freertos/Source/queue.c.obj
 .text          0x000000c0        0x0 CMakeFiles/MSPM0G3507_BASIC.elf.dir/D_/tools/ti/mspm0_sdk_2_10_00_04/kernel/freertos/Source/stream_buffer.c.obj
 .text          0x000000c0        0x0 CMakeFiles/MSPM0G3507_BASIC.elf.dir/D_/tools/ti/mspm0_sdk_2_10_00_04/kernel/freertos/Source/tasks.c.obj
 .text          0x000000c0        0x0 CMakeFiles/MSPM0G3507_BASIC.elf.dir/D_/tools/ti/mspm0_sdk_2_10_00_04/kernel/freertos/Source/timers.c.obj
 .text          0x000000c0        0x0 CMakeFiles/MSPM0G3507_BASIC.elf.dir/D_/tools/ti/mspm0_sdk_2_10_00_04/kernel/freertos/Source/portable/MemMang/heap_4.c.obj
 .text          0x000000c0        0x0 CMakeFiles/MSPM0G3507_BASIC.elf.dir/D_/tools/ti/mspm0_sdk_2_10_00_04/kernel/freertos/Source/portable/GCC/ARM_CM0/port.c.obj
 .text          0x000000c0        0x0 CMakeFiles/MSPM0G3507_BASIC.elf.dir/D_/tools/ti/mspm0_sdk_2_10_00_04/kernel/freertos/Source/portable/GCC/ARM_CM0/portasm.c.obj
 .text          0x000000c0        0x0 CMakeFiles/MSPM0G3507_BASIC.elf.dir/D_/tools/ti/mspm0_sdk_2_10_00_04/kernel/freertos/dpl/AppHooks_freertos.c.obj
 .text          0x000000c0        0x0 CMakeFiles/MSPM0G3507_BASIC.elf.dir/app/freertos_hooks.c.obj
 .text          0x000000c0        0x0 app/libapp.a(robot.c.obj)
 .text          0x000000c0        0x0 bsp/libbsp.a(bsp_init.c.obj)
 .text          0x000000c0        0x0 bsp/libbsp.a(bsp_dwt.c.obj)
 .text          0x000000c0        0x0 bsp/libbsp.a(bsp_log.c.obj)
 .text          0x000000c0        0x0 D:/tools/ti/mspm0_sdk_2_10_00_04/source/ti/driverlib/lib/gcc/m0p/mspm0g1x0x_g3x0x/driverlib.a(dl_adc12.o)
 .text          0x000000c0        0x0 D:/tools/ti/mspm0_sdk_2_10_00_04/source/ti/driverlib/lib/gcc/m0p/mspm0g1x0x_g3x0x/driverlib.a(dl_common.o)
 .text          0x000000c0        0x0 D:/tools/ti/mspm0_sdk_2_10_00_04/source/ti/driverlib/lib/gcc/m0p/mspm0g1x0x_g3x0x/driverlib.a(dl_i2c.o)
 .text          0x000000c0        0x0 D:/tools/ti/mspm0_sdk_2_10_00_04/source/ti/driverlib/lib/gcc/m0p/mspm0g1x0x_g3x0x/driverlib.a(dl_spi.o)
 .text          0x000000c0        0x0 D:/tools/ti/mspm0_sdk_2_10_00_04/source/ti/driverlib/lib/gcc/m0p/mspm0g1x0x_g3x0x/driverlib.a(dl_timer.o)
 .text          0x000000c0        0x0 D:/tools/ti/mspm0_sdk_2_10_00_04/source/ti/driverlib/lib/gcc/m0p/mspm0g1x0x_g3x0x/driverlib.a(dl_uart.o)
 .text          0x000000c0      0x114 D:/Program Files/STM32CubeCLT_1.21.0/GNU-tools-for-STM32/bin/../lib/gcc/arm-none-eabi/14.3.1/thumb/v6-m/nofp\libgcc.a(_udivsi3.o)
                0x000000c0                __aeabi_uidiv
                0x000000c0                __udivsi3
                0x000001cc                __aeabi_uidivmod
 .text          0x000001d4        0x4 D:/Program Files/STM32CubeCLT_1.21.0/GNU-tools-for-STM32/bin/../lib/gcc/arm-none-eabi/14.3.1/thumb/v6-m/nofp\libgcc.a(_dvmd_tls.o)
                0x000001d4                __aeabi_idiv0
                0x000001d4                __aeabi_ldiv0
 .text          0x000001d8       0x74 D:/Program Files/STM32CubeCLT_1.21.0/GNU-tools-for-STM32/bin/../lib/gcc/arm-none-eabi/14.3.1/thumb/v6-m/nofp\libgcc.a(_arm_cmpsf2.o)
                0x000001d8                __aeabi_cfrcmple
                0x000001e0                __aeabi_cfcmpeq
                0x000001e0                __aeabi_cfcmple
                0x000001f0                __aeabi_fcmpeq
                0x000001fc                __aeabi_fcmplt
                0x00000210                __aeabi_fcmple
                0x00000224                __aeabi_fcmpgt
                0x00000238                __aeabi_fcmpge
 .text          0x0000024c       0x30 D:/Program Files/STM32CubeCLT_1.21.0/GNU-tools-for-STM32/bin/../lib/gcc/arm-none-eabi/14.3.1/thumb/v6-m/nofp\libgcc.a(_fixunssfsi.o)
                0x0000024c                __fixunssfsi
                0x0000024c                __aeabi_f2uiz
 .text          0x0000027c       0x40 D:/Program Files/STM32CubeCLT_1.21.0/GNU-tools-for-STM32/bin/../lib/gcc/arm-none-eabi/14.3.1/thumb/v6-m/nofp\libgcc.a(_fixunssfdi.o)
                0x0000027c                __fixunssfdi
                0x0000027c                __aeabi_f2ulz
 .text          0x000002bc      0x22c D:/Program Files/STM32CubeCLT_1.21.0/GNU-tools-for-STM32/bin/../lib/gcc/arm-none-eabi/14.3.1/thumb/v6-m/nofp\libgcc.a(divsf3.o)
                0x000002bc                __aeabi_fdiv
 .text          0x000004e8       0x50 D:/Program Files/STM32CubeCLT_1.21.0/GNU-tools-for-STM32/bin/../lib/gcc/arm-none-eabi/14.3.1/thumb/v6-m/nofp\libgcc.a(eqsf2.o)
                0x000004e8                __eqsf2
                0x000004e8                __nesf2
 .text          0x00000538       0x90 D:/Program Files/STM32CubeCLT_1.21.0/GNU-tools-for-STM32/bin/../lib/gcc/arm-none-eabi/14.3.1/thumb/v6-m/nofp\libgcc.a(gesf2.o)
                0x00000538                __gesf2
                0x00000538                __gtsf2
 .text          0x000005c8       0x90 D:/Program Files/STM32CubeCLT_1.21.0/GNU-tools-for-STM32/bin/../lib/gcc/arm-none-eabi/14.3.1/thumb/v6-m/nofp\libgcc.a(lesf2.o)
                0x000005c8                __ltsf2
                0x000005c8                __lesf2
 .text          0x00000658      0x2a4 D:/Program Files/STM32CubeCLT_1.21.0/GNU-tools-for-STM32/bin/../lib/gcc/arm-none-eabi/14.3.1/thumb/v6-m/nofp\libgcc.a(mulsf3.o)
                0x00000658                __aeabi_fmul
 .text          0x000008fc      0x484 D:/Program Files/STM32CubeCLT_1.21.0/GNU-tools-for-STM32/bin/../lib/gcc/arm-none-eabi/14.3.1/thumb/v6-m/nofp\libgcc.a(subsf3.o)
                0x000008fc                __aeabi_fsub
 .text          0x00000d80       0x40 D:/Program Files/STM32CubeCLT_1.21.0/GNU-tools-for-STM32/bin/../lib/gcc/arm-none-eabi/14.3.1/thumb/v6-m/nofp\libgcc.a(fixsfsi.o)
                0x00000d80                __aeabi_f2iz
 .text          0x00000dc0       0xa0 D:/Program Files/STM32CubeCLT_1.21.0/GNU-tools-for-STM32/bin/../lib/gcc/arm-none-eabi/14.3.1/thumb/v6-m/nofp\libgcc.a(floatsisf.o)
                0x00000dc0                __aeabi_i2f
 .text          0x00000e60       0x8c D:/Program Files/STM32CubeCLT_1.21.0/GNU-tools-for-STM32/bin/../lib/gcc/arm-none-eabi/14.3.1/thumb/v6-m/nofp\libgcc.a(floatunsisf.o)
                0x00000e60                __aeabi_ui2f
 .text          0x00000eec      0x63c D:/Program Files/STM32CubeCLT_1.21.0/GNU-tools-for-STM32/bin/../lib/gcc/arm-none-eabi/14.3.1/thumb/v6-m/nofp\libgcc.a(divdf3.o)
                0x00000eec                __aeabi_ddiv
 .text          0x00001528      0x590 D:/Program Files/STM32CubeCLT_1.21.0/GNU-tools-for-STM32/bin/../lib/gcc/arm-none-eabi/14.3.1/thumb/v6-m/nofp\libgcc.a(muldf3.o)
                0x00001528                __aeabi_dmul
 .text          0x00001ab8      0x870 D:/Program Files/STM32CubeCLT_1.21.0/GNU-tools-for-STM32/bin/../lib/gcc/arm-none-eabi/14.3.1/thumb/v6-m/nofp\libgcc.a(subdf3.o)
                0x00001ab8                __aeabi_dsub
 .text          0x00002328       0x48 D:/Program Files/STM32CubeCLT_1.21.0/GNU-tools-for-STM32/bin/../lib/gcc/arm-none-eabi/14.3.1/thumb/v6-m/nofp\libgcc.a(floatunsidf.o)
                0x00002328                __aeabi_ui2d
 .text          0x00002370       0x90 D:/Program Files/STM32CubeCLT_1.21.0/GNU-tools-for-STM32/bin/../lib/gcc/arm-none-eabi/14.3.1/thumb/v6-m/nofp\libgcc.a(extendsfdf2.o)
                0x00002370                __aeabi_f2d
 .text          0x00002400       0x3c D:/Program Files/STM32CubeCLT_1.21.0/GNU-tools-for-STM32/bin/../lib/gcc/arm-none-eabi/14.3.1/thumb/v6-m/nofp\libgcc.a(_clzsi2.o)
                0x00002400                __clzsi2
 .text          0x0000243c       0x3c D:/Program Files/STM32CubeCLT_1.21.0/GNU-tools-for-STM32/bin/../lib/gcc/arm-none-eabi/14.3.1/thumb/v6-m/nofp\libgcc.a(_fixunsdfsi.o)
                0x0000243c                __aeabi_d2uiz
                0x0000243c                __fixunsdfsi
 .text          0x00002478       0x78 D:/Program Files/STM32CubeCLT_1.21.0/GNU-tools-for-STM32/bin/../lib/gcc/arm-none-eabi/14.3.1/thumb/v6-m/nofp\libgcc.a(fixdfsi.o)
                0x00002478                __aeabi_d2iz
 .text          0x000024f0       0x7c D:/Program Files/STM32CubeCLT_1.21.0/GNU-tools-for-STM32/bin/../lib/gcc/arm-none-eabi/14.3.1/thumb/v6-m/nofp\libgcc.a(_arm_cmpdf2.o)
                0x000024f0                __aeabi_cdrcmple
                0x00002500                __aeabi_cdcmple
                0x00002500                __aeabi_cdcmpeq
                0x00002510                __aeabi_dcmpeq
                0x0000251c                __aeabi_dcmplt
                0x00002530                __aeabi_dcmple
                0x00002544                __aeabi_dcmpgt
                0x00002558                __aeabi_dcmpge
 .text          0x0000256c       0x8c D:/Program Files/STM32CubeCLT_1.21.0/GNU-tools-for-STM32/bin/../lib/gcc/arm-none-eabi/14.3.1/thumb/v6-m/nofp\libgcc.a(eqdf2.o)
                0x0000256c                __nedf2
                0x0000256c                __eqdf2
 .text          0x000025f8       0xe0 D:/Program Files/STM32CubeCLT_1.21.0/GNU-tools-for-STM32/bin/../lib/gcc/arm-none-eabi/14.3.1/thumb/v6-m/nofp\libgcc.a(gedf2.o)
                0x000025f8                __gedf2
                0x000025f8                __gtdf2
 .text          0x000026d8       0xdc D:/Program Files/STM32CubeCLT_1.21.0/GNU-tools-for-STM32/bin/../lib/gcc/arm-none-eabi/14.3.1/thumb/v6-m/nofp\libgcc.a(ledf2.o)
                0x000026d8                __ledf2
                0x000026d8                __ltdf2
 .text          0x000027b4        0x0 D:/Program Files/STM32CubeCLT_1.21.0/GNU-tools-for-STM32/bin/../lib/gcc/arm-none-eabi/14.3.1/../../../../arm-none-eabi/lib/thumb/v6-m/nofp\libg_nano.a(libc_a-findfp.o)
 .text          0x000027b4        0x0 D:/Program Files/STM32CubeCLT_1.21.0/GNU-tools-for-STM32/bin/../lib/gcc/arm-none-eabi/14.3.1/../../../../arm-none-eabi/lib/thumb/v6-m/nofp\libg_nano.a(libc_a-fwalk.o)
 .text          0x000027b4        0x0 D:/Program Files/STM32CubeCLT_1.21.0/GNU-tools-for-STM32/bin/../lib/gcc/arm-none-eabi/14.3.1/../../../../arm-none-eabi/lib/thumb/v6-m/nofp\libg_nano.a(libc_a-sprintf.o)
 .text          0x000027b4        0x0 D:/Program Files/STM32CubeCLT_1.21.0/GNU-tools-for-STM32/bin/../lib/gcc/arm-none-eabi/14.3.1/../../../../arm-none-eabi/lib/thumb/v6-m/nofp\libg_nano.a(libc_a-stdio.o)
 .text          0x000027b4        0x0 D:/Program Files/STM32CubeCLT_1.21.0/GNU-tools-for-STM32/bin/../lib/gcc/arm-none-eabi/14.3.1/../../../../arm-none-eabi/lib/thumb/v6-m/nofp\libg_nano.a(libc_a-vprintf.o)
 .text          0x000027b4        0x0 D:/Program Files/STM32CubeCLT_1.21.0/GNU-tools-for-STM32/bin/../lib/gcc/arm-none-eabi/14.3.1/../../../../arm-none-eabi/lib/thumb/v6-m/nofp\libg_nano.a(libc_a-memset.o)
 .text          0x000027b4        0x0 D:/Program Files/STM32CubeCLT_1.21.0/GNU-tools-for-STM32/bin/../lib/gcc/arm-none-eabi/14.3.1/../../../../arm-none-eabi/lib/thumb/v6-m/nofp\libg_nano.a(libc_a-closer.o)
 .text          0x000027b4        0x0 D:/Program Files/STM32CubeCLT_1.21.0/GNU-tools-for-STM32/bin/../lib/gcc/arm-none-eabi/14.3.1/../../../../arm-none-eabi/lib/thumb/v6-m/nofp\libg_nano.a(libc_a-reent.o)
 .text          0x000027b4        0x0 D:/Program Files/STM32CubeCLT_1.21.0/GNU-tools-for-STM32/bin/../lib/gcc/arm-none-eabi/14.3.1/../../../../arm-none-eabi/lib/thumb/v6-m/nofp\libg_nano.a(libc_a-impure.o)
 .text          0x000027b4        0x0 D:/Program Files/STM32CubeCLT_1.21.0/GNU-tools-for-STM32/bin/../lib/gcc/arm-none-eabi/14.3.1/../../../../arm-none-eabi/lib/thumb/v6-m/nofp\libg_nano.a(libc_a-lseekr.o)
 .text          0x000027b4        0x0 D:/Program Files/STM32CubeCLT_1.21.0/GNU-tools-for-STM32/bin/../lib/gcc/arm-none-eabi/14.3.1/../../../../arm-none-eabi/lib/thumb/v6-m/nofp\libg_nano.a(libc_a-readr.o)
 .text          0x000027b4        0x0 D:/Program Files/STM32CubeCLT_1.21.0/GNU-tools-for-STM32/bin/../lib/gcc/arm-none-eabi/14.3.1/../../../../arm-none-eabi/lib/thumb/v6-m/nofp\libg_nano.a(libc_a-writer.o)
 .text          0x000027b4        0x0 D:/Program Files/STM32CubeCLT_1.21.0/GNU-tools-for-STM32/bin/../lib/gcc/arm-none-eabi/14.3.1/../../../../arm-none-eabi/lib/thumb/v6-m/nofp\libg_nano.a(libc_a-errno.o)
 .text          0x000027b4        0x0 D:/Program Files/STM32CubeCLT_1.21.0/GNU-tools-for-STM32/bin/../lib/gcc/arm-none-eabi/14.3.1/../../../../arm-none-eabi/lib/thumb/v6-m/nofp\libg_nano.a(libc_a-init.o)
 .text          0x000027b4        0x0 D:/Program Files/STM32CubeCLT_1.21.0/GNU-tools-for-STM32/bin/../lib/gcc/arm-none-eabi/14.3.1/../../../../arm-none-eabi/lib/thumb/v6-m/nofp\libg_nano.a(libc_a-lock.o)
 .text          0x000027b4        0x0 D:/Program Files/STM32CubeCLT_1.21.0/GNU-tools-for-STM32/bin/../lib/gcc/arm-none-eabi/14.3.1/../../../../arm-none-eabi/lib/thumb/v6-m/nofp\libg_nano.a(libc_a-memcpy-stub.o)
 .text          0x000027b4        0x0 D:/Program Files/STM32CubeCLT_1.21.0/GNU-tools-for-STM32/bin/../lib/gcc/arm-none-eabi/14.3.1/../../../../arm-none-eabi/lib/thumb/v6-m/nofp\libg_nano.a(libc_a-freer.o)
 .text          0x000027b4        0x0 D:/Program Files/STM32CubeCLT_1.21.0/GNU-tools-for-STM32/bin/../lib/gcc/arm-none-eabi/14.3.1/../../../../arm-none-eabi/lib/thumb/v6-m/nofp\libg_nano.a(libc_a-mallocr.o)
 .text          0x000027b4        0x0 D:/Program Files/STM32CubeCLT_1.21.0/GNU-tools-for-STM32/bin/../lib/gcc/arm-none-eabi/14.3.1/../../../../arm-none-eabi/lib/thumb/v6-m/nofp\libg_nano.a(libc_a-mlock.o)
 .text          0x000027b4        0x0 D:/Program Files/STM32CubeCLT_1.21.0/GNU-tools-for-STM32/bin/../lib/gcc/arm-none-eabi/14.3.1/../../../../arm-none-eabi/lib/thumb/v6-m/nofp\libg_nano.a(libc_a-nano-svfprintf.o)
 .text          0x000027b4        0x0 D:/Program Files/STM32CubeCLT_1.21.0/GNU-tools-for-STM32/bin/../lib/gcc/arm-none-eabi/14.3.1/../../../../arm-none-eabi/lib/thumb/v6-m/nofp\libg_nano.a(libc_a-nano-vfprintf.o)
 .text          0x000027b4        0x0 D:/Program Files/STM32CubeCLT_1.21.0/GNU-tools-for-STM32/bin/../lib/gcc/arm-none-eabi/14.3.1/../../../../arm-none-eabi/lib/thumb/v6-m/nofp\libg_nano.a(libc_a-nano-vfprintf_i.o)
 .text          0x000027b4        0x0 D:/Program Files/STM32CubeCLT_1.21.0/GNU-tools-for-STM32/bin/../lib/gcc/arm-none-eabi/14.3.1/../../../../arm-none-eabi/lib/thumb/v6-m/nofp\libg_nano.a(libc_a-fflush.o)
 .text          0x000027b4        0x0 D:/Program Files/STM32CubeCLT_1.21.0/GNU-tools-for-STM32/bin/../lib/gcc/arm-none-eabi/14.3.1/../../../../arm-none-eabi/lib/thumb/v6-m/nofp\libg_nano.a(libc_a-fvwrite.o)
 .text          0x000027b4        0x0 D:/Program Files/STM32CubeCLT_1.21.0/GNU-tools-for-STM32/bin/../lib/gcc/arm-none-eabi/14.3.1/../../../../arm-none-eabi/lib/thumb/v6-m/nofp\libg_nano.a(libc_a-wbuf.o)
 .text          0x000027b4        0x0 D:/Program Files/STM32CubeCLT_1.21.0/GNU-tools-for-STM32/bin/../lib/gcc/arm-none-eabi/14.3.1/../../../../arm-none-eabi/lib/thumb/v6-m/nofp\libg_nano.a(libc_a-wsetup.o)
 .text          0x000027b4        0x0 D:/Program Files/STM32CubeCLT_1.21.0/GNU-tools-for-STM32/bin/../lib/gcc/arm-none-eabi/14.3.1/../../../../arm-none-eabi/lib/thumb/v6-m/nofp\libg_nano.a(libc_a-memmove.o)
 .text          0x000027b4        0x0 D:/Program Files/STM32CubeCLT_1.21.0/GNU-tools-for-STM32/bin/../lib/gcc/arm-none-eabi/14.3.1/../../../../arm-none-eabi/lib/thumb/v6-m/nofp\libg_nano.a(libc_a-sbrkr.o)
 .text          0x000027b4        0x0 D:/Program Files/STM32CubeCLT_1.21.0/GNU-tools-for-STM32/bin/../lib/gcc/arm-none-eabi/14.3.1/../../../../arm-none-eabi/lib/thumb/v6-m/nofp\libg_nano.a(libc_a-memchr-stub.o)
 .text          0x000027b4        0x0 D:/Program Files/STM32CubeCLT_1.21.0/GNU-tools-for-STM32/bin/../lib/gcc/arm-none-eabi/14.3.1/../../../../arm-none-eabi/lib/thumb/v6-m/nofp\libg_nano.a(libc_a-reallocr.o)
 .text          0x000027b4        0x0 D:/Program Files/STM32CubeCLT_1.21.0/GNU-tools-for-STM32/bin/../lib/gcc/arm-none-eabi/14.3.1/../../../../arm-none-eabi/lib/thumb/v6-m/nofp\libg_nano.a(libc_a-makebuf.o)
 .text          0x000027b4        0x0 D:/Program Files/STM32CubeCLT_1.21.0/GNU-tools-for-STM32/bin/../lib/gcc/arm-none-eabi/14.3.1/../../../../arm-none-eabi/lib/thumb/v6-m/nofp\libg_nano.a(libc_a-fstatr.o)
 .text          0x000027b4        0x0 D:/Program Files/STM32CubeCLT_1.21.0/GNU-tools-for-STM32/bin/../lib/gcc/arm-none-eabi/14.3.1/../../../../arm-none-eabi/lib/thumb/v6-m/nofp\libg_nano.a(libc_a-isattyr.o)
 .text          0x000027b4        0x0 D:/Program Files/STM32CubeCLT_1.21.0/GNU-tools-for-STM32/bin/../lib/gcc/arm-none-eabi/14.3.1/../../../../arm-none-eabi/lib/thumb/v6-m/nofp\libg_nano.a(libc_a-msizer.o)
 .text          0x000027b4       0x14 D:/Program Files/STM32CubeCLT_1.21.0/GNU-tools-for-STM32/bin/../lib/gcc/arm-none-eabi/14.3.1/thumb/v6-m/nofp\libgcc.a(_thumb1_case_shi.o)
                0x000027b4                __gnu_thumb1_case_shi
 .text          0x000027c8      0x1d4 D:/Program Files/STM32CubeCLT_1.21.0/GNU-tools-for-STM32/bin/../lib/gcc/arm-none-eabi/14.3.1/thumb/v6-m/nofp\libgcc.a(_divsi3.o)
                0x000027c8                __divsi3
                0x000027c8                __aeabi_idiv
                0x00002994                __aeabi_idivmod
 .text          0x0000299c        0x0 D:/Program Files/STM32CubeCLT_1.21.0/GNU-tools-for-STM32/bin/../lib/gcc/arm-none-eabi/14.3.1/../../../../arm-none-eabi/lib/thumb/v6-m/nofp\libnosys.a(sbrk.o)
                0x000029a0                        . = ALIGN (0x8)
 *fill*         0x0000299c        0x4 
 *(.text.*)
 .text.startup.main
                0x000029a0       0x10 CMakeFiles/MSPM0G3507_BASIC.elf.dir/empty.c.obj
                0x000029a0                main
 .text._close   0x000029b0       0x10 CMakeFiles/MSPM0G3507_BASIC.elf.dir/app/syscalls_stub.c.obj
                0x000029b0                _close
 .text._fstat   0x000029c0        0xc CMakeFiles/MSPM0G3507_BASIC.elf.dir/app/syscalls_stub.c.obj
                0x000029c0                _fstat
 .text._isatty  0x000029cc        0x4 CMakeFiles/MSPM0G3507_BASIC.elf.dir/app/syscalls_stub.c.obj
                0x000029cc                _isatty
 .text._lseek   0x000029d0       0x10 CMakeFiles/MSPM0G3507_BASIC.elf.dir/app/syscalls_stub.c.obj
                0x000029d0                _lseek
 .text._read    0x000029e0       0x10 CMakeFiles/MSPM0G3507_BASIC.elf.dir/app/syscalls_stub.c.obj
                0x000029e0                _read
 .text._write   0x000029f0        0x4 CMakeFiles/MSPM0G3507_BASIC.elf.dir/app/syscalls_stub.c.obj
                0x000029f0                _write
 .text.SYSCFG_DL_initPower
                0x000029f4       0xa4 CMakeFiles/MSPM0G3507_BASIC.elf.dir/syscfg/ti_msp_dl_config.c.obj
                0x000029f4                SYSCFG_DL_initPower
 .text.SYSCFG_DL_GPIO_init
                0x00002a98       0xbc CMakeFiles/MSPM0G3507_BASIC.elf.dir/syscfg/ti_msp_dl_config.c.obj
                0x00002a98                SYSCFG_DL_GPIO_init
 .text.SYSCFG_DL_SYSCTL_init
                0x00002b54       0x50 CMakeFiles/MSPM0G3507_BASIC.elf.dir/syscfg/ti_msp_dl_config.c.obj
                0x00002b54                SYSCFG_DL_SYSCTL_init
 .text.SYSCFG_DL_PWM_0_init
                0x00002ba4       0x90 CMakeFiles/MSPM0G3507_BASIC.elf.dir/syscfg/ti_msp_dl_config.c.obj
                0x00002ba4                SYSCFG_DL_PWM_0_init
 .text.SYSCFG_DL_PWM_1_init
                0x00002c34       0x90 CMakeFiles/MSPM0G3507_BASIC.elf.dir/syscfg/ti_msp_dl_config.c.obj
                0x00002c34                SYSCFG_DL_PWM_1_init
 .text.SYSCFG_DL_PWM_2_init
                0x00002cc4       0x90 CMakeFiles/MSPM0G3507_BASIC.elf.dir/syscfg/ti_msp_dl_config.c.obj
                0x00002cc4                SYSCFG_DL_PWM_2_init
 .text.SYSCFG_DL_PWM_3_init
                0x00002d54       0x90 CMakeFiles/MSPM0G3507_BASIC.elf.dir/syscfg/ti_msp_dl_config.c.obj
                0x00002d54                SYSCFG_DL_PWM_3_init
 .text.SYSCFG_DL_TIMER_0_init
                0x00002de4       0x2c CMakeFiles/MSPM0G3507_BASIC.elf.dir/syscfg/ti_msp_dl_config.c.obj
                0x00002de4                SYSCFG_DL_TIMER_0_init
 .text.SYSCFG_DL_I2C_0_init
                0x00002e10       0x30 CMakeFiles/MSPM0G3507_BASIC.elf.dir/syscfg/ti_msp_dl_config.c.obj
                0x00002e10                SYSCFG_DL_I2C_0_init
 .text.SYSCFG_DL_UART_0_init
                0x00002e40       0x78 CMakeFiles/MSPM0G3507_BASIC.elf.dir/syscfg/ti_msp_dl_config.c.obj
                0x00002e40                SYSCFG_DL_UART_0_init
 .text.SYSCFG_DL_SPI_0_init
                0x00002eb8       0x5c CMakeFiles/MSPM0G3507_BASIC.elf.dir/syscfg/ti_msp_dl_config.c.obj
                0x00002eb8                SYSCFG_DL_SPI_0_init
 .text.SYSCFG_DL_ADC12_0_init
                0x00002f14       0x2c CMakeFiles/MSPM0G3507_BASIC.elf.dir/syscfg/ti_msp_dl_config.c.obj
                0x00002f14                SYSCFG_DL_ADC12_0_init
 .text.SYSCFG_DL_DMA_init
                0x00002f40        0x4 CMakeFiles/MSPM0G3507_BASIC.elf.dir/syscfg/ti_msp_dl_config.c.obj
                0x00002f40                SYSCFG_DL_DMA_init
 .text.SYSCFG_DL_CRC_init
                0x00002f44       0x18 CMakeFiles/MSPM0G3507_BASIC.elf.dir/syscfg/ti_msp_dl_config.c.obj
                0x00002f44                SYSCFG_DL_CRC_init
 .text.SYSCFG_DL_SYSTICK_init
                0x00002f5c        0x4 CMakeFiles/MSPM0G3507_BASIC.elf.dir/syscfg/ti_msp_dl_config.c.obj
                0x00002f5c                SYSCFG_DL_SYSTICK_init
 .text.SYSCFG_DL_init
                0x00002f60       0x70 CMakeFiles/MSPM0G3507_BASIC.elf.dir/syscfg/ti_msp_dl_config.c.obj
                0x00002f60                SYSCFG_DL_init
 .text.Default_Handler
                0x00002fd0        0x4 CMakeFiles/MSPM0G3507_BASIC.elf.dir/D_/tools/ti/mspm0_sdk_2_10_00_04/source/ti/devices/msp/m0p/startup_system_files/gcc/startup_mspm0g350x_gcc.c.obj
                0x00002fd0                TIMG6_IRQHandler
                0x00002fd0                TIMG8_IRQHandler
                0x00002fd0                I2C0_IRQHandler
                0x00002fd0                HardFault_Handler
                0x00002fd0                NMI_Handler
                0x00002fd0                I2C1_IRQHandler
                0x00002fd0                UART1_IRQHandler
                0x00002fd0                TIMA1_IRQHandler
                0x00002fd0                UART0_IRQHandler
                0x00002fd0                ADC0_IRQHandler
                0x00002fd0                SPI1_IRQHandler
                0x00002fd0                TIMG0_IRQHandler
                0x00002fd0                ADC1_IRQHandler
                0x00002fd0                GROUP1_IRQHandler
                0x00002fd0                RTC_IRQHandler
                0x00002fd0                GROUP0_IRQHandler
                0x00002fd0                UART2_IRQHandler
                0x00002fd0                Default_Handler
                0x00002fd0                TIMG12_IRQHandler
                0x00002fd0                DAC0_IRQHandler
                0x00002fd0                TIMG7_IRQHandler
                0x00002fd0                SPI0_IRQHandler
                0x00002fd0                AES_IRQHandler
                0x00002fd0                DMA_IRQHandler
                0x00002fd0                TIMA0_IRQHandler
                0x00002fd0                UART3_IRQHandler
                0x00002fd0                CANFD0_IRQHandler
 .text.Reset_Handler
                0x00002fd4       0x78 CMakeFiles/MSPM0G3507_BASIC.elf.dir/D_/tools/ti/mspm0_sdk_2_10_00_04/source/ti/devices/msp/m0p/startup_system_files/gcc/startup_mspm0g350x_gcc.c.obj
                0x00002fd4                Reset_Handler
 .text.initStub
                0x0000304c        0x4 CMakeFiles/MSPM0G3507_BASIC.elf.dir/D_/tools/ti/mspm0_sdk_2_10_00_04/source/ti/devices/msp/m0p/startup_system_files/gcc/startup_mspm0g350x_gcc.c.obj
                0x0000304c                initStub
                0x0000304c                _init
 .text.vListInitialise
                0x00003050       0x18 CMakeFiles/MSPM0G3507_BASIC.elf.dir/D_/tools/ti/mspm0_sdk_2_10_00_04/kernel/freertos/Source/list.c.obj
                0x00003050                vListInitialise
 .text.vListInitialiseItem
                0x00003068        0x8 CMakeFiles/MSPM0G3507_BASIC.elf.dir/D_/tools/ti/mspm0_sdk_2_10_00_04/kernel/freertos/Source/list.c.obj
                0x00003068                vListInitialiseItem
 .text.vListInsert
                0x00003070       0x30 CMakeFiles/MSPM0G3507_BASIC.elf.dir/D_/tools/ti/mspm0_sdk_2_10_00_04/kernel/freertos/Source/list.c.obj
                0x00003070                vListInsert
 .text.uxListRemove
                0x000030a0       0x20 CMakeFiles/MSPM0G3507_BASIC.elf.dir/D_/tools/ti/mspm0_sdk_2_10_00_04/kernel/freertos/Source/list.c.obj
                0x000030a0                uxListRemove
 .text.prvUnlockQueue
                0x000030c0       0x94 CMakeFiles/MSPM0G3507_BASIC.elf.dir/D_/tools/ti/mspm0_sdk_2_10_00_04/kernel/freertos/Source/queue.c.obj
 .text.xQueueGenericReset
                0x00003154       0xa4 CMakeFiles/MSPM0G3507_BASIC.elf.dir/D_/tools/ti/mspm0_sdk_2_10_00_04/kernel/freertos/Source/queue.c.obj
                0x00003154                xQueueGenericReset
 .text.xQueueGenericCreateStatic
                0x000031f8       0x64 CMakeFiles/MSPM0G3507_BASIC.elf.dir/D_/tools/ti/mspm0_sdk_2_10_00_04/kernel/freertos/Source/queue.c.obj
                0x000031f8                xQueueGenericCreateStatic
 .text.xQueueReceive
                0x0000325c      0x148 CMakeFiles/MSPM0G3507_BASIC.elf.dir/D_/tools/ti/mspm0_sdk_2_10_00_04/kernel/freertos/Source/queue.c.obj
                0x0000325c                xQueueReceive
 .text.vQueueWaitForMessageRestricted
                0x000033a4       0x48 CMakeFiles/MSPM0G3507_BASIC.elf.dir/D_/tools/ti/mspm0_sdk_2_10_00_04/kernel/freertos/Source/queue.c.obj
                0x000033a4                vQueueWaitForMessageRestricted
 .text.prvAddNewTaskToReadyList
                0x000033ec      0x120 CMakeFiles/MSPM0G3507_BASIC.elf.dir/D_/tools/ti/mspm0_sdk_2_10_00_04/kernel/freertos/Source/tasks.c.obj
 .text.prvAddCurrentTaskToDelayedList
                0x0000350c       0xb8 CMakeFiles/MSPM0G3507_BASIC.elf.dir/D_/tools/ti/mspm0_sdk_2_10_00_04/kernel/freertos/Source/tasks.c.obj
 .text.prvInitialiseNewTask.constprop.0
                0x000035c4       0xe0 CMakeFiles/MSPM0G3507_BASIC.elf.dir/D_/tools/ti/mspm0_sdk_2_10_00_04/kernel/freertos/Source/tasks.c.obj
 .text.prvCheckTasksWaitingTermination
                0x000036a4       0x84 CMakeFiles/MSPM0G3507_BASIC.elf.dir/D_/tools/ti/mspm0_sdk_2_10_00_04/kernel/freertos/Source/tasks.c.obj
 .text.xTaskIncrementTick.part.0
                0x00003728      0x178 CMakeFiles/MSPM0G3507_BASIC.elf.dir/D_/tools/ti/mspm0_sdk_2_10_00_04/kernel/freertos/Source/tasks.c.obj
 .text.xTaskResumeAll.part.0
                0x000038a0      0x17c CMakeFiles/MSPM0G3507_BASIC.elf.dir/D_/tools/ti/mspm0_sdk_2_10_00_04/kernel/freertos/Source/tasks.c.obj
 .text.prvIdleTask
                0x00003a1c       0xb0 CMakeFiles/MSPM0G3507_BASIC.elf.dir/D_/tools/ti/mspm0_sdk_2_10_00_04/kernel/freertos/Source/tasks.c.obj
 .text.xTaskCreateStatic
                0x00003acc       0x78 CMakeFiles/MSPM0G3507_BASIC.elf.dir/D_/tools/ti/mspm0_sdk_2_10_00_04/kernel/freertos/Source/tasks.c.obj
                0x00003acc                xTaskCreateStatic
 .text.xTaskCreate
                0x00003b44       0x68 CMakeFiles/MSPM0G3507_BASIC.elf.dir/D_/tools/ti/mspm0_sdk_2_10_00_04/kernel/freertos/Source/tasks.c.obj
                0x00003b44                xTaskCreate
 .text.vTaskDelay
                0x00003bac       0x40 CMakeFiles/MSPM0G3507_BASIC.elf.dir/D_/tools/ti/mspm0_sdk_2_10_00_04/kernel/freertos/Source/tasks.c.obj
                0x00003bac                vTaskDelay
 .text.vTaskStartScheduler
                0x00003bec       0xa0 CMakeFiles/MSPM0G3507_BASIC.elf.dir/D_/tools/ti/mspm0_sdk_2_10_00_04/kernel/freertos/Source/tasks.c.obj
                0x00003bec                vTaskStartScheduler
 .text.vTaskSuspendAll
                0x00003c8c       0x10 CMakeFiles/MSPM0G3507_BASIC.elf.dir/D_/tools/ti/mspm0_sdk_2_10_00_04/kernel/freertos/Source/tasks.c.obj
                0x00003c8c                vTaskSuspendAll
 .text.xTaskResumeAll
                0x00003c9c       0x1c CMakeFiles/MSPM0G3507_BASIC.elf.dir/D_/tools/ti/mspm0_sdk_2_10_00_04/kernel/freertos/Source/tasks.c.obj
                0x00003c9c                xTaskResumeAll
 .text.xTaskGetTickCount
                0x00003cb8        0xc CMakeFiles/MSPM0G3507_BASIC.elf.dir/D_/tools/ti/mspm0_sdk_2_10_00_04/kernel/freertos/Source/tasks.c.obj
                0x00003cb8                xTaskGetTickCount
 .text.vTaskStepTick
                0x00003cc4       0x5c CMakeFiles/MSPM0G3507_BASIC.elf.dir/D_/tools/ti/mspm0_sdk_2_10_00_04/kernel/freertos/Source/tasks.c.obj
                0x00003cc4                vTaskStepTick
 .text.xTaskIncrementTick
                0x00003d20       0x24 CMakeFiles/MSPM0G3507_BASIC.elf.dir/D_/tools/ti/mspm0_sdk_2_10_00_04/kernel/freertos/Source/tasks.c.obj
                0x00003d20                xTaskIncrementTick
 .text.vTaskSwitchContext
                0x00003d44       0xc4 CMakeFiles/MSPM0G3507_BASIC.elf.dir/D_/tools/ti/mspm0_sdk_2_10_00_04/kernel/freertos/Source/tasks.c.obj
                0x00003d44                vTaskSwitchContext
 .text.vTaskPlaceOnEventList
                0x00003e08       0x24 CMakeFiles/MSPM0G3507_BASIC.elf.dir/D_/tools/ti/mspm0_sdk_2_10_00_04/kernel/freertos/Source/tasks.c.obj
                0x00003e08                vTaskPlaceOnEventList
 .text.vTaskPlaceOnEventListRestricted
                0x00003e2c       0x48 CMakeFiles/MSPM0G3507_BASIC.elf.dir/D_/tools/ti/mspm0_sdk_2_10_00_04/kernel/freertos/Source/tasks.c.obj
                0x00003e2c                vTaskPlaceOnEventListRestricted
 .text.xTaskRemoveFromEventList
                0x00003e74       0xf4 CMakeFiles/MSPM0G3507_BASIC.elf.dir/D_/tools/ti/mspm0_sdk_2_10_00_04/kernel/freertos/Source/tasks.c.obj
                0x00003e74                xTaskRemoveFromEventList
 .text.vTaskInternalSetTimeOutState
                0x00003f68       0x18 CMakeFiles/MSPM0G3507_BASIC.elf.dir/D_/tools/ti/mspm0_sdk_2_10_00_04/kernel/freertos/Source/tasks.c.obj
                0x00003f68                vTaskInternalSetTimeOutState
 .text.xTaskCheckForTimeOut
                0x00003f80       0x6c CMakeFiles/MSPM0G3507_BASIC.elf.dir/D_/tools/ti/mspm0_sdk_2_10_00_04/kernel/freertos/Source/tasks.c.obj
                0x00003f80                xTaskCheckForTimeOut
 .text.vTaskMissedYield
                0x00003fec        0xc CMakeFiles/MSPM0G3507_BASIC.elf.dir/D_/tools/ti/mspm0_sdk_2_10_00_04/kernel/freertos/Source/tasks.c.obj
                0x00003fec                vTaskMissedYield
 .text.eTaskConfirmSleepModeStatus
                0x00003ff8       0x44 CMakeFiles/MSPM0G3507_BASIC.elf.dir/D_/tools/ti/mspm0_sdk_2_10_00_04/kernel/freertos/Source/tasks.c.obj
                0x00003ff8                eTaskConfirmSleepModeStatus
 .text.xTaskGetSchedulerState
                0x0000403c       0x20 CMakeFiles/MSPM0G3507_BASIC.elf.dir/D_/tools/ti/mspm0_sdk_2_10_00_04/kernel/freertos/Source/tasks.c.obj
                0x0000403c                xTaskGetSchedulerState
 .text.prvCheckForValidListAndQueue
                0x0000405c       0x60 CMakeFiles/MSPM0G3507_BASIC.elf.dir/D_/tools/ti/mspm0_sdk_2_10_00_04/kernel/freertos/Source/timers.c.obj
 .text.prvProcessExpiredTimer
                0x000040bc       0x80 CMakeFiles/MSPM0G3507_BASIC.elf.dir/D_/tools/ti/mspm0_sdk_2_10_00_04/kernel/freertos/Source/timers.c.obj
 .text.prvTimerTask
                0x0000413c      0x268 CMakeFiles/MSPM0G3507_BASIC.elf.dir/D_/tools/ti/mspm0_sdk_2_10_00_04/kernel/freertos/Source/timers.c.obj
 .text.xTimerCreateTimerTask
                0x000043a4       0x5c CMakeFiles/MSPM0G3507_BASIC.elf.dir/D_/tools/ti/mspm0_sdk_2_10_00_04/kernel/freertos/Source/timers.c.obj
                0x000043a4                xTimerCreateTimerTask
 .text.pvPortMalloc
                0x00004400      0x184 CMakeFiles/MSPM0G3507_BASIC.elf.dir/D_/tools/ti/mspm0_sdk_2_10_00_04/kernel/freertos/Source/portable/MemMang/heap_4.c.obj
                0x00004400                pvPortMalloc
 .text.vPortFree
                0x00004584       0xe8 CMakeFiles/MSPM0G3507_BASIC.elf.dir/D_/tools/ti/mspm0_sdk_2_10_00_04/kernel/freertos/Source/portable/MemMang/heap_4.c.obj
                0x00004584                vPortFree
 .text.prvTaskExitError
                0x0000466c       0x24 CMakeFiles/MSPM0G3507_BASIC.elf.dir/D_/tools/ti/mspm0_sdk_2_10_00_04/kernel/freertos/Source/portable/GCC/ARM_CM0/port.c.obj
 .text.vPortSuppressTicksAndSleep
                0x00004690      0x120 CMakeFiles/MSPM0G3507_BASIC.elf.dir/D_/tools/ti/mspm0_sdk_2_10_00_04/kernel/freertos/Source/portable/GCC/ARM_CM0/port.c.obj
                0x00004690                vPortSuppressTicksAndSleep
 .text.vPortSetupTimerInterrupt
                0x000047b0       0x4c CMakeFiles/MSPM0G3507_BASIC.elf.dir/D_/tools/ti/mspm0_sdk_2_10_00_04/kernel/freertos/Source/portable/GCC/ARM_CM0/port.c.obj
                0x000047b0                vPortSetupTimerInterrupt
 .text.vPortYield
                0x000047fc       0x18 CMakeFiles/MSPM0G3507_BASIC.elf.dir/D_/tools/ti/mspm0_sdk_2_10_00_04/kernel/freertos/Source/portable/GCC/ARM_CM0/port.c.obj
                0x000047fc                vPortYield
 .text.vPortEnterCritical
                0x00004814       0x18 CMakeFiles/MSPM0G3507_BASIC.elf.dir/D_/tools/ti/mspm0_sdk_2_10_00_04/kernel/freertos/Source/portable/GCC/ARM_CM0/port.c.obj
                0x00004814                vPortEnterCritical
 .text.vPortExitCritical
                0x0000482c       0x20 CMakeFiles/MSPM0G3507_BASIC.elf.dir/D_/tools/ti/mspm0_sdk_2_10_00_04/kernel/freertos/Source/portable/GCC/ARM_CM0/port.c.obj
                0x0000482c                vPortExitCritical
 .text.SysTick_Handler
                0x0000484c       0x24 CMakeFiles/MSPM0G3507_BASIC.elf.dir/D_/tools/ti/mspm0_sdk_2_10_00_04/kernel/freertos/Source/portable/GCC/ARM_CM0/port.c.obj
                0x0000484c                SysTick_Handler
 .text.vPortSVCHandler_C
                0x00004870       0x18 CMakeFiles/MSPM0G3507_BASIC.elf.dir/D_/tools/ti/mspm0_sdk_2_10_00_04/kernel/freertos/Source/portable/GCC/ARM_CM0/port.c.obj
                0x00004870                vPortSVCHandler_C
 .text.pxPortInitialiseStack
                0x00004888       0xa0 CMakeFiles/MSPM0G3507_BASIC.elf.dir/D_/tools/ti/mspm0_sdk_2_10_00_04/kernel/freertos/Source/portable/GCC/ARM_CM0/port.c.obj
                0x00004888                pxPortInitialiseStack
 .text.xPortStartScheduler
                0x00004928       0x80 CMakeFiles/MSPM0G3507_BASIC.elf.dir/D_/tools/ti/mspm0_sdk_2_10_00_04/kernel/freertos/Source/portable/GCC/ARM_CM0/port.c.obj
                0x00004928                xPortStartScheduler
 *fill*         0x000049a8        0x8 
 .text.vRestoreContextOfFirstTask
                0x000049b0       0x24 CMakeFiles/MSPM0G3507_BASIC.elf.dir/D_/tools/ti/mspm0_sdk_2_10_00_04/kernel/freertos/Source/portable/GCC/ARM_CM0/portasm.c.obj
                0x000049b0                vRestoreContextOfFirstTask
 *fill*         0x000049d4        0xc 
 .text.vStartFirstTask
                0x000049e0       0x10 CMakeFiles/MSPM0G3507_BASIC.elf.dir/D_/tools/ti/mspm0_sdk_2_10_00_04/kernel/freertos/Source/portable/GCC/ARM_CM0/portasm.c.obj
                0x000049e0                vStartFirstTask
 .text.ulSetInterruptMask
                0x000049f0        0x8 CMakeFiles/MSPM0G3507_BASIC.elf.dir/D_/tools/ti/mspm0_sdk_2_10_00_04/kernel/freertos/Source/portable/GCC/ARM_CM0/portasm.c.obj
                0x000049f0                ulSetInterruptMask
 .text.vClearInterruptMask
                0x000049f8        0x8 CMakeFiles/MSPM0G3507_BASIC.elf.dir/D_/tools/ti/mspm0_sdk_2_10_00_04/kernel/freertos/Source/portable/GCC/ARM_CM0/portasm.c.obj
                0x000049f8                vClearInterruptMask
 .text.PendSV_Handler
                0x00004a00       0x44 CMakeFiles/MSPM0G3507_BASIC.elf.dir/D_/tools/ti/mspm0_sdk_2_10_00_04/kernel/freertos/Source/portable/GCC/ARM_CM0/portasm.c.obj
                0x00004a00                PendSV_Handler
 *fill*         0x00004a44        0xc 
 .text.SVC_Handler
                0x00004a50       0x24 CMakeFiles/MSPM0G3507_BASIC.elf.dir/D_/tools/ti/mspm0_sdk_2_10_00_04/kernel/freertos/Source/portable/GCC/ARM_CM0/portasm.c.obj
                0x00004a50                SVC_Handler
 .text.vApplicationStackOverflowHook
                0x00004a74        0x4 CMakeFiles/MSPM0G3507_BASIC.elf.dir/D_/tools/ti/mspm0_sdk_2_10_00_04/kernel/freertos/dpl/AppHooks_freertos.c.obj
                0x00004a74                vApplicationStackOverflowHook
 .text.vApplicationGetIdleTaskMemory
                0x00004a78       0x18 CMakeFiles/MSPM0G3507_BASIC.elf.dir/app/freertos_hooks.c.obj
                0x00004a78                vApplicationGetIdleTaskMemory
 .text.vApplicationGetTimerTaskMemory
                0x00004a90       0x18 CMakeFiles/MSPM0G3507_BASIC.elf.dir/app/freertos_hooks.c.obj
                0x00004a90                vApplicationGetTimerTaskMemory
 .text.SEGGER_RTT_printf.constprop.0
                0x00004aa8       0x18 app/libapp.a(robot.c.obj)
 .text.StartROBOTTASK
                0x00004ac0       0x78 app/libapp.a(robot.c.obj)
                0x00004ac0                StartROBOTTASK
 .text.RobotInit
                0x00004b38       0x44 app/libapp.a(robot.c.obj)
                0x00004b38                RobotInit
 .text.BSPInit  0x00004b7c       0x10 bsp/libbsp.a(bsp_init.c.obj)
                0x00004b7c                BSPInit
 .text.DWT_Init
                0x00004b8c       0x1c bsp/libbsp.a(bsp_dwt.c.obj)
                0x00004b8c                DWT_Init
 .text.DWT_GetTimeline_ms
                0x00004ba8       0x18 bsp/libbsp.a(bsp_dwt.c.obj)
                0x00004ba8                DWT_GetTimeline_ms
 .text.BSPLogInit
                0x00004bc0        0x4 bsp/libbsp.a(bsp_log.c.obj)
                0x00004bc0                BSPLogInit
 .text.DL_ADC12_setClockConfig
                0x00004bc4       0x40 D:/tools/ti/mspm0_sdk_2_10_00_04/source/ti/driverlib/lib/gcc/m0p/mspm0g1x0x_g3x0x/driverlib.a(dl_adc12.o)
                0x00004bc4                DL_ADC12_setClockConfig
 .text.DL_Common_delayCycles
                0x00004c04        0xc D:/tools/ti/mspm0_sdk_2_10_00_04/source/ti/driverlib/lib/gcc/m0p/mspm0g1x0x_g3x0x/driverlib.a(dl_common.o)
                0x00004c04                DL_Common_delayCycles
 .text.DL_I2C_setClockConfig
                0x00004c10       0x28 D:/tools/ti/mspm0_sdk_2_10_00_04/source/ti/driverlib/lib/gcc/m0p/mspm0g1x0x_g3x0x/driverlib.a(dl_i2c.o)
                0x00004c10                DL_I2C_setClockConfig
 .text.DL_SPI_init
                0x00004c38       0x40 D:/tools/ti/mspm0_sdk_2_10_00_04/source/ti/driverlib/lib/gcc/m0p/mspm0g1x0x_g3x0x/driverlib.a(dl_spi.o)
                0x00004c38                DL_SPI_init
 .text.DL_SPI_setClockConfig
                0x00004c78       0x14 D:/tools/ti/mspm0_sdk_2_10_00_04/source/ti/driverlib/lib/gcc/m0p/mspm0g1x0x_g3x0x/driverlib.a(dl_spi.o)
                0x00004c78                DL_SPI_setClockConfig
 .text.DL_Timer_setClockConfig
                0x00004c8c       0x1c D:/tools/ti/mspm0_sdk_2_10_00_04/source/ti/driverlib/lib/gcc/m0p/mspm0g1x0x_g3x0x/driverlib.a(dl_timer.o)
                0x00004c8c                DL_Timer_setClockConfig
 .text.DL_Timer_initTimerMode
                0x00004ca8       0x8c D:/tools/ti/mspm0_sdk_2_10_00_04/source/ti/driverlib/lib/gcc/m0p/mspm0g1x0x_g3x0x/driverlib.a(dl_timer.o)
                0x00004ca8                DL_Timer_initTimerMode
 .text.DL_Timer_setCaptureCompareValue
                0x00004d34       0x14 D:/tools/ti/mspm0_sdk_2_10_00_04/source/ti/driverlib/lib/gcc/m0p/mspm0g1x0x_g3x0x/driverlib.a(dl_timer.o)
                0x00004d34                DL_Timer_setCaptureCompareValue
 .text.DL_Timer_setCaptCompUpdateMethod
                0x00004d48       0x20 D:/tools/ti/mspm0_sdk_2_10_00_04/source/ti/driverlib/lib/gcc/m0p/mspm0g1x0x_g3x0x/driverlib.a(dl_timer.o)
                0x00004d48                DL_Timer_setCaptCompUpdateMethod
 .text.DL_Timer_setCaptureCompareOutCtl
                0x00004d68       0x1c D:/tools/ti/mspm0_sdk_2_10_00_04/source/ti/driverlib/lib/gcc/m0p/mspm0g1x0x_g3x0x/driverlib.a(dl_timer.o)
                0x00004d68                DL_Timer_setCaptureCompareOutCtl
 .text.DL_Timer_initFourCCPWMMode
                0x00004d84      0x190 D:/tools/ti/mspm0_sdk_2_10_00_04/source/ti/driverlib/lib/gcc/m0p/mspm0g1x0x_g3x0x/driverlib.a(dl_timer.o)
                0x00004d84                DL_Timer_initFourCCPWMMode
 .text.DL_UART_init
                0x00004f14       0x48 D:/tools/ti/mspm0_sdk_2_10_00_04/source/ti/driverlib/lib/gcc/m0p/mspm0g1x0x_g3x0x/driverlib.a(dl_uart.o)
                0x00004f14                DL_UART_init
 .text.DL_UART_setClockConfig
                0x00004f5c       0x14 D:/tools/ti/mspm0_sdk_2_10_00_04/source/ti/driverlib/lib/gcc/m0p/mspm0g1x0x_g3x0x/driverlib.a(dl_uart.o)
                0x00004f5c                DL_UART_setClockConfig
 .text.std      0x00004f70       0x6c D:/Program Files/STM32CubeCLT_1.21.0/GNU-tools-for-STM32/bin/../lib/gcc/arm-none-eabi/14.3.1/../../../../arm-none-eabi/lib/thumb/v6-m/nofp\libg_nano.a(libc_a-findfp.o)
 .text.stdio_exit_handler
                0x00004fdc       0x1c D:/Program Files/STM32CubeCLT_1.21.0/GNU-tools-for-STM32/bin/../lib/gcc/arm-none-eabi/14.3.1/../../../../arm-none-eabi/lib/thumb/v6-m/nofp\libg_nano.a(libc_a-findfp.o)
 .text.cleanup_stdio
                0x00004ff8       0x3c D:/Program Files/STM32CubeCLT_1.21.0/GNU-tools-for-STM32/bin/../lib/gcc/arm-none-eabi/14.3.1/../../../../arm-none-eabi/lib/thumb/v6-m/nofp\libg_nano.a(libc_a-findfp.o)
 .text.global_stdio_init.part.0
                0x00005034       0x3c D:/Program Files/STM32CubeCLT_1.21.0/GNU-tools-for-STM32/bin/../lib/gcc/arm-none-eabi/14.3.1/../../../../arm-none-eabi/lib/thumb/v6-m/nofp\libg_nano.a(libc_a-findfp.o)
 .text.__sfp_lock_acquire
                0x00005070       0x10 D:/Program Files/STM32CubeCLT_1.21.0/GNU-tools-for-STM32/bin/../lib/gcc/arm-none-eabi/14.3.1/../../../../arm-none-eabi/lib/thumb/v6-m/nofp\libg_nano.a(libc_a-findfp.o)
                0x00005070                __sfp_lock_acquire
 .text.__sfp_lock_release
                0x00005080       0x10 D:/Program Files/STM32CubeCLT_1.21.0/GNU-tools-for-STM32/bin/../lib/gcc/arm-none-eabi/14.3.1/../../../../arm-none-eabi/lib/thumb/v6-m/nofp\libg_nano.a(libc_a-findfp.o)
                0x00005080                __sfp_lock_release
 .text.__sinit  0x00005090       0x30 D:/Program Files/STM32CubeCLT_1.21.0/GNU-tools-for-STM32/bin/../lib/gcc/arm-none-eabi/14.3.1/../../../../arm-none-eabi/lib/thumb/v6-m/nofp\libg_nano.a(libc_a-findfp.o)
                0x00005090                __sinit
 .text._fwalk_sglue
                0x000050c0       0x38 D:/Program Files/STM32CubeCLT_1.21.0/GNU-tools-for-STM32/bin/../lib/gcc/arm-none-eabi/14.3.1/../../../../arm-none-eabi/lib/thumb/v6-m/nofp\libg_nano.a(libc_a-fwalk.o)
                0x000050c0                _fwalk_sglue
 .text.__sread  0x000050f8       0x28 D:/Program Files/STM32CubeCLT_1.21.0/GNU-tools-for-STM32/bin/../lib/gcc/arm-none-eabi/14.3.1/../../../../arm-none-eabi/lib/thumb/v6-m/nofp\libg_nano.a(libc_a-stdio.o)
                0x000050f8                __sread
 .text.__swrite
                0x00005120       0x38 D:/Program Files/STM32CubeCLT_1.21.0/GNU-tools-for-STM32/bin/../lib/gcc/arm-none-eabi/14.3.1/../../../../arm-none-eabi/lib/thumb/v6-m/nofp\libg_nano.a(libc_a-stdio.o)
                0x00005120                __swrite
 .text.__sseek  0x00005158       0x2c D:/Program Files/STM32CubeCLT_1.21.0/GNU-tools-for-STM32/bin/../lib/gcc/arm-none-eabi/14.3.1/../../../../arm-none-eabi/lib/thumb/v6-m/nofp\libg_nano.a(libc_a-stdio.o)
                0x00005158                __sseek
 .text.__sclose
                0x00005184        0xc D:/Program Files/STM32CubeCLT_1.21.0/GNU-tools-for-STM32/bin/../lib/gcc/arm-none-eabi/14.3.1/../../../../arm-none-eabi/lib/thumb/v6-m/nofp\libg_nano.a(libc_a-stdio.o)
                0x00005184                __sclose
 .text.vprintf  0x00005190       0x18 D:/Program Files/STM32CubeCLT_1.21.0/GNU-tools-for-STM32/bin/../lib/gcc/arm-none-eabi/14.3.1/../../../../arm-none-eabi/lib/thumb/v6-m/nofp\libg_nano.a(libc_a-vprintf.o)
                0x00005190                viprintf
                0x00005190                vprintf
 .text.memset   0x000051a8       0x10 D:/Program Files/STM32CubeCLT_1.21.0/GNU-tools-for-STM32/bin/../lib/gcc/arm-none-eabi/14.3.1/../../../../arm-none-eabi/lib/thumb/v6-m/nofp\libg_nano.a(libc_a-memset.o)
                0x000051a8                memset
 .text._close_r
                0x000051b8       0x24 D:/Program Files/STM32CubeCLT_1.21.0/GNU-tools-for-STM32/bin/../lib/gcc/arm-none-eabi/14.3.1/../../../../arm-none-eabi/lib/thumb/v6-m/nofp\libg_nano.a(libc_a-closer.o)
                0x000051b8                _close_r
 .text._reclaim_reent
                0x000051dc       0xd4 D:/Program Files/STM32CubeCLT_1.21.0/GNU-tools-for-STM32/bin/../lib/gcc/arm-none-eabi/14.3.1/../../../../arm-none-eabi/lib/thumb/v6-m/nofp\libg_nano.a(libc_a-reent.o)
                0x000051dc                _reclaim_reent
 .text._lseek_r
                0x000052b0       0x28 D:/Program Files/STM32CubeCLT_1.21.0/GNU-tools-for-STM32/bin/../lib/gcc/arm-none-eabi/14.3.1/../../../../arm-none-eabi/lib/thumb/v6-m/nofp\libg_nano.a(libc_a-lseekr.o)
                0x000052b0                _lseek_r
 .text._read_r  0x000052d8       0x28 D:/Program Files/STM32CubeCLT_1.21.0/GNU-tools-for-STM32/bin/../lib/gcc/arm-none-eabi/14.3.1/../../../../arm-none-eabi/lib/thumb/v6-m/nofp\libg_nano.a(libc_a-readr.o)
                0x000052d8                _read_r
 .text._write_r
                0x00005300       0x28 D:/Program Files/STM32CubeCLT_1.21.0/GNU-tools-for-STM32/bin/../lib/gcc/arm-none-eabi/14.3.1/../../../../arm-none-eabi/lib/thumb/v6-m/nofp\libg_nano.a(libc_a-writer.o)
                0x00005300                _write_r
 .text.__errno  0x00005328        0xc D:/Program Files/STM32CubeCLT_1.21.0/GNU-tools-for-STM32/bin/../lib/gcc/arm-none-eabi/14.3.1/../../../../arm-none-eabi/lib/thumb/v6-m/nofp\libg_nano.a(libc_a-errno.o)
                0x00005328                __errno
 .text.__libc_init_array
                0x00005334       0x48 D:/Program Files/STM32CubeCLT_1.21.0/GNU-tools-for-STM32/bin/../lib/gcc/arm-none-eabi/14.3.1/../../../../arm-none-eabi/lib/thumb/v6-m/nofp\libg_nano.a(libc_a-init.o)
                0x00005334                __libc_init_array
 .text.__retarget_lock_init_recursive
                0x0000537c        0x2 D:/Program Files/STM32CubeCLT_1.21.0/GNU-tools-for-STM32/bin/../lib/gcc/arm-none-eabi/14.3.1/../../../../arm-none-eabi/lib/thumb/v6-m/nofp\libg_nano.a(libc_a-lock.o)
                0x0000537c                __retarget_lock_init_recursive
 .text.__retarget_lock_acquire_recursive
                0x0000537e        0x2 D:/Program Files/STM32CubeCLT_1.21.0/GNU-tools-for-STM32/bin/../lib/gcc/arm-none-eabi/14.3.1/../../../../arm-none-eabi/lib/thumb/v6-m/nofp\libg_nano.a(libc_a-lock.o)
                0x0000537e                __retarget_lock_acquire_recursive
 .text.__retarget_lock_release_recursive
                0x00005380        0x2 D:/Program Files/STM32CubeCLT_1.21.0/GNU-tools-for-STM32/bin/../lib/gcc/arm-none-eabi/14.3.1/../../../../arm-none-eabi/lib/thumb/v6-m/nofp\libg_nano.a(libc_a-lock.o)
                0x00005380                __retarget_lock_release_recursive
 .text.memcpy   0x00005382       0x12 D:/Program Files/STM32CubeCLT_1.21.0/GNU-tools-for-STM32/bin/../lib/gcc/arm-none-eabi/14.3.1/../../../../arm-none-eabi/lib/thumb/v6-m/nofp\libg_nano.a(libc_a-memcpy-stub.o)
                0x00005382                memcpy
 .text._free_r  0x00005394       0x94 D:/Program Files/STM32CubeCLT_1.21.0/GNU-tools-for-STM32/bin/../lib/gcc/arm-none-eabi/14.3.1/../../../../arm-none-eabi/lib/thumb/v6-m/nofp\libg_nano.a(libc_a-freer.o)
                0x00005394                _free_r
 .text.sbrk_aligned
                0x00005428       0x44 D:/Program Files/STM32CubeCLT_1.21.0/GNU-tools-for-STM32/bin/../lib/gcc/arm-none-eabi/14.3.1/../../../../arm-none-eabi/lib/thumb/v6-m/nofp\libg_nano.a(libc_a-mallocr.o)
 .text._malloc_r
                0x0000546c      0x100 D:/Program Files/STM32CubeCLT_1.21.0/GNU-tools-for-STM32/bin/../lib/gcc/arm-none-eabi/14.3.1/../../../../arm-none-eabi/lib/thumb/v6-m/nofp\libg_nano.a(libc_a-mallocr.o)
                0x0000546c                _malloc_r
 .text.__malloc_lock
                0x0000556c       0x10 D:/Program Files/STM32CubeCLT_1.21.0/GNU-tools-for-STM32/bin/../lib/gcc/arm-none-eabi/14.3.1/../../../../arm-none-eabi/lib/thumb/v6-m/nofp\libg_nano.a(libc_a-mlock.o)
                0x0000556c                __malloc_lock
 .text.__malloc_unlock
                0x0000557c       0x10 D:/Program Files/STM32CubeCLT_1.21.0/GNU-tools-for-STM32/bin/../lib/gcc/arm-none-eabi/14.3.1/../../../../arm-none-eabi/lib/thumb/v6-m/nofp\libg_nano.a(libc_a-mlock.o)
                0x0000557c                __malloc_unlock
 .text.__sfputc_r
                0x0000558c       0x2a D:/Program Files/STM32CubeCLT_1.21.0/GNU-tools-for-STM32/bin/../lib/gcc/arm-none-eabi/14.3.1/../../../../arm-none-eabi/lib/thumb/v6-m/nofp\libg_nano.a(libc_a-nano-vfprintf.o)
 .text.__sfputs_r
                0x000055b6       0x24 D:/Program Files/STM32CubeCLT_1.21.0/GNU-tools-for-STM32/bin/../lib/gcc/arm-none-eabi/14.3.1/../../../../arm-none-eabi/lib/thumb/v6-m/nofp\libg_nano.a(libc_a-nano-vfprintf.o)
                0x000055b6                __sfputs_r
 *fill*         0x000055da        0x2 
 .text._vfprintf_r
                0x000055dc      0x230 D:/Program Files/STM32CubeCLT_1.21.0/GNU-tools-for-STM32/bin/../lib/gcc/arm-none-eabi/14.3.1/../../../../arm-none-eabi/lib/thumb/v6-m/nofp\libg_nano.a(libc_a-nano-vfprintf.o)
                0x000055dc                _vfprintf_r
                0x000055dc                _vfiprintf_r
 .text._printf_common
                0x0000580c       0xde D:/Program Files/STM32CubeCLT_1.21.0/GNU-tools-for-STM32/bin/../lib/gcc/arm-none-eabi/14.3.1/../../../../arm-none-eabi/lib/thumb/v6-m/nofp\libg_nano.a(libc_a-nano-vfprintf_i.o)
                0x0000580c                _printf_common
 *fill*         0x000058ea        0x2 
 .text._printf_i
                0x000058ec      0x218 D:/Program Files/STM32CubeCLT_1.21.0/GNU-tools-for-STM32/bin/../lib/gcc/arm-none-eabi/14.3.1/../../../../arm-none-eabi/lib/thumb/v6-m/nofp\libg_nano.a(libc_a-nano-vfprintf_i.o)
                0x000058ec                _printf_i
 .text.__sflush_r
                0x00005b04      0x114 D:/Program Files/STM32CubeCLT_1.21.0/GNU-tools-for-STM32/bin/../lib/gcc/arm-none-eabi/14.3.1/../../../../arm-none-eabi/lib/thumb/v6-m/nofp\libg_nano.a(libc_a-fflush.o)
                0x00005b04                __sflush_r
 .text._fflush_r
                0x00005c18       0x56 D:/Program Files/STM32CubeCLT_1.21.0/GNU-tools-for-STM32/bin/../lib/gcc/arm-none-eabi/14.3.1/../../../../arm-none-eabi/lib/thumb/v6-m/nofp\libg_nano.a(libc_a-fflush.o)
                0x00005c18                _fflush_r
 .text.__swbuf_r
                0x00005c6e       0x84 D:/Program Files/STM32CubeCLT_1.21.0/GNU-tools-for-STM32/bin/../lib/gcc/arm-none-eabi/14.3.1/../../../../arm-none-eabi/lib/thumb/v6-m/nofp\libg_nano.a(libc_a-wbuf.o)
                0x00005c6e                __swbuf_r
 *fill*         0x00005cf2        0x2 
 .text.__swsetup_r
                0x00005cf4       0xb4 D:/Program Files/STM32CubeCLT_1.21.0/GNU-tools-for-STM32/bin/../lib/gcc/arm-none-eabi/14.3.1/../../../../arm-none-eabi/lib/thumb/v6-m/nofp\libg_nano.a(libc_a-wsetup.o)
                0x00005cf4                __swsetup_r
 .text._sbrk_r  0x00005da8       0x24 D:/Program Files/STM32CubeCLT_1.21.0/GNU-tools-for-STM32/bin/../lib/gcc/arm-none-eabi/14.3.1/../../../../arm-none-eabi/lib/thumb/v6-m/nofp\libg_nano.a(libc_a-sbrkr.o)
                0x00005da8                _sbrk_r
 .text.memchr   0x00005dcc       0x16 D:/Program Files/STM32CubeCLT_1.21.0/GNU-tools-for-STM32/bin/../lib/gcc/arm-none-eabi/14.3.1/../../../../arm-none-eabi/lib/thumb/v6-m/nofp\libg_nano.a(libc_a-memchr-stub.o)
                0x00005dcc                memchr
 *fill*         0x00005de2        0x2 
 .text.__swhatbuf_r
                0x00005de4       0x54 D:/Program Files/STM32CubeCLT_1.21.0/GNU-tools-for-STM32/bin/../lib/gcc/arm-none-eabi/14.3.1/../../../../arm-none-eabi/lib/thumb/v6-m/nofp\libg_nano.a(libc_a-makebuf.o)
                0x00005de4                __swhatbuf_r
 .text.__smakebuf_r
                0x00005e38       0x72 D:/Program Files/STM32CubeCLT_1.21.0/GNU-tools-for-STM32/bin/../lib/gcc/arm-none-eabi/14.3.1/../../../../arm-none-eabi/lib/thumb/v6-m/nofp\libg_nano.a(libc_a-makebuf.o)
                0x00005e38                __smakebuf_r
 *fill*         0x00005eaa        0x2 
 .text._fstat_r
                0x00005eac       0x24 D:/Program Files/STM32CubeCLT_1.21.0/GNU-tools-for-STM32/bin/../lib/gcc/arm-none-eabi/14.3.1/../../../../arm-none-eabi/lib/thumb/v6-m/nofp\libg_nano.a(libc_a-fstatr.o)
                0x00005eac                _fstat_r
 .text._isatty_r
                0x00005ed0       0x24 D:/Program Files/STM32CubeCLT_1.21.0/GNU-tools-for-STM32/bin/../lib/gcc/arm-none-eabi/14.3.1/../../../../arm-none-eabi/lib/thumb/v6-m/nofp\libg_nano.a(libc_a-isattyr.o)
                0x00005ed0                _isatty_r
 .text._sbrk    0x00005ef4       0x1c D:/Program Files/STM32CubeCLT_1.21.0/GNU-tools-for-STM32/bin/../lib/gcc/arm-none-eabi/14.3.1/../../../../arm-none-eabi/lib/thumb/v6-m/nofp\libnosys.a(sbrk.o)
                0x00005ef4                _sbrk
                0x00005f10                        . = ALIGN (0x8)
 *(.ctors)
                0x00005f10                        . = ALIGN (0x8)
 *(.dtors)
                0x00005f10                        . = ALIGN (0x8)
 *(.init)
                0x00005f10                        . = ALIGN (0x8)
 *(.fini*)
                0x00005f10                        . = ALIGN (0x8)

.glue_7         0x00005f10        0x0
 .glue_7        0x00005f10        0x0 linker stubs

.glue_7t        0x00005f10        0x0
 .glue_7t       0x00005f10        0x0 linker stubs

.vfp11_veneer   0x00005f10        0x0
 .vfp11_veneer  0x00005f10        0x0 linker stubs

.v4_bx          0x00005f10        0x0
 .v4_bx         0x00005f10        0x0 linker stubs

.iplt           0x00005f10        0x0
 .iplt          0x00005f10        0x0 CMakeFiles/MSPM0G3507_BASIC.elf.dir/empty.c.obj

.ramfunc        0x20200000        0x0 load address 0x00005f10
                0x00005f10                        __ramfunct_load__ = LOADADDR (.ramfunc)
                0x20200000                        __ramfunct_start__ = .
 *(.ramfunc)
                0x20200000                        . = ALIGN (0x8)
                0x20200000                        __ramfunct_end__ = .

.rodata         0x00005f10      0x2b0
 *(.rodata)
 .rodata        0x00005f10       0x7c D:/Program Files/STM32CubeCLT_1.21.0/GNU-tools-for-STM32/bin/../lib/gcc/arm-none-eabi/14.3.1/thumb/v6-m/nofp\libgcc.a(divsf3.o)
 .rodata        0x00005f8c       0x40 D:/Program Files/STM32CubeCLT_1.21.0/GNU-tools-for-STM32/bin/../lib/gcc/arm-none-eabi/14.3.1/thumb/v6-m/nofp\libgcc.a(divdf3.o)
                0x00005fd0                        . = ALIGN (0x8)
 *fill*         0x00005fcc        0x4 
 *(.rodata.*)
 .rodata.gADC12_0ClockConfig
                0x00005fd0        0x8 CMakeFiles/MSPM0G3507_BASIC.elf.dir/syscfg/ti_msp_dl_config.c.obj
 .rodata.gSPI_0_clockConfig
                0x00005fd8        0x2 CMakeFiles/MSPM0G3507_BASIC.elf.dir/syscfg/ti_msp_dl_config.c.obj
 *fill*         0x00005fda        0x2 
 .rodata.gSPI_0_config
                0x00005fdc        0xa CMakeFiles/MSPM0G3507_BASIC.elf.dir/syscfg/ti_msp_dl_config.c.obj
 *fill*         0x00005fe6        0x2 
 .rodata.gUART_0Config
                0x00005fe8        0xa CMakeFiles/MSPM0G3507_BASIC.elf.dir/syscfg/ti_msp_dl_config.c.obj
 *fill*         0x00005ff2        0x2 
 .rodata.gUART_0ClockConfig
                0x00005ff4        0x2 CMakeFiles/MSPM0G3507_BASIC.elf.dir/syscfg/ti_msp_dl_config.c.obj
 *fill*         0x00005ff6        0x2 
 .rodata.gI2C_0ClockConfig
                0x00005ff8        0x2 CMakeFiles/MSPM0G3507_BASIC.elf.dir/syscfg/ti_msp_dl_config.c.obj
 *fill*         0x00005ffa        0x2 
 .rodata.gTIMER_0TimerConfig
                0x00005ffc       0x14 CMakeFiles/MSPM0G3507_BASIC.elf.dir/syscfg/ti_msp_dl_config.c.obj
 .rodata.gTIMER_0ClockConfig
                0x00006010        0x3 CMakeFiles/MSPM0G3507_BASIC.elf.dir/syscfg/ti_msp_dl_config.c.obj
 *fill*         0x00006013        0x1 
 .rodata.gPWM_3Config
                0x00006014        0x8 CMakeFiles/MSPM0G3507_BASIC.elf.dir/syscfg/ti_msp_dl_config.c.obj
 .rodata.gPWM_3ClockConfig
                0x0000601c        0x3 CMakeFiles/MSPM0G3507_BASIC.elf.dir/syscfg/ti_msp_dl_config.c.obj
 *fill*         0x0000601f        0x1 
 .rodata.gPWM_2Config
                0x00006020        0x8 CMakeFiles/MSPM0G3507_BASIC.elf.dir/syscfg/ti_msp_dl_config.c.obj
 .rodata.gPWM_2ClockConfig
                0x00006028        0x3 CMakeFiles/MSPM0G3507_BASIC.elf.dir/syscfg/ti_msp_dl_config.c.obj
 *fill*         0x0000602b        0x1 
 .rodata.gPWM_1Config
                0x0000602c        0x8 CMakeFiles/MSPM0G3507_BASIC.elf.dir/syscfg/ti_msp_dl_config.c.obj
 .rodata.gPWM_1ClockConfig
                0x00006034        0x3 CMakeFiles/MSPM0G3507_BASIC.elf.dir/syscfg/ti_msp_dl_config.c.obj
 *fill*         0x00006037        0x1 
 .rodata.gPWM_0Config
                0x00006038        0x8 CMakeFiles/MSPM0G3507_BASIC.elf.dir/syscfg/ti_msp_dl_config.c.obj
 .rodata.gPWM_0ClockConfig
                0x00006040        0x3 CMakeFiles/MSPM0G3507_BASIC.elf.dir/syscfg/ti_msp_dl_config.c.obj
 *fill*         0x00006043        0x1 
 .rodata.uxTopUsedPriority
                0x00006044        0x4 CMakeFiles/MSPM0G3507_BASIC.elf.dir/D_/tools/ti/mspm0_sdk_2_10_00_04/kernel/freertos/Source/tasks.c.obj
 .rodata.prvTimerTask
                0x00006048       0x28 CMakeFiles/MSPM0G3507_BASIC.elf.dir/D_/tools/ti/mspm0_sdk_2_10_00_04/kernel/freertos/Source/timers.c.obj
 .rodata.xTimerCreateTimerTask.str1.4
                0x00006070       0x8a CMakeFiles/MSPM0G3507_BASIC.elf.dir/D_/tools/ti/mspm0_sdk_2_10_00_04/kernel/freertos/Source/timers.c.obj
                                  0x8 (size before relaxing)
 .rodata.StartROBOTTASK.str1.4
                0x000060fa       0x77 app/libapp.a(robot.c.obj)
 .rodata.OSTaskInit.str1.4
                0x000060fa        0xa app/libapp.a(robot.c.obj)
 *fill*         0x000060fa        0x2 
 .rodata.DL_Timer_initTimerMode
                0x000060fc       0x8c D:/tools/ti/mspm0_sdk_2_10_00_04/source/ti/driverlib/lib/gcc/m0p/mspm0g1x0x_g3x0x/driverlib.a(dl_timer.o)
 .rodata._vfprintf_r.str1.1
                0x00006188       0x33 D:/Program Files/STM32CubeCLT_1.21.0/GNU-tools-for-STM32/bin/../lib/gcc/arm-none-eabi/14.3.1/../../../../arm-none-eabi/lib/thumb/v6-m/nofp\libg_nano.a(libc_a-nano-vfprintf.o)
                                 0x11 (size before relaxing)
 .rodata._printf_i.str1.1
                0x000061bb       0x22 D:/Program Files/STM32CubeCLT_1.21.0/GNU-tools-for-STM32/bin/../lib/gcc/arm-none-eabi/14.3.1/../../../../arm-none-eabi/lib/thumb/v6-m/nofp\libg_nano.a(libc_a-nano-vfprintf_i.o)
                0x000061e0                        . = ALIGN (0x8)
 *fill*         0x000061bb        0x5 

.rel.dyn        0x000061c0        0x0
 .rel.iplt      0x000061c0        0x0 CMakeFiles/MSPM0G3507_BASIC.elf.dir/empty.c.obj

.preinit_array  0x000061c0        0x0
                0x000061c0                        PROVIDE (__preinit_array_start = .)
 *(.preinit_array*)
                0x000061c0                        PROVIDE (__preinit_array_end = .)

.init_array     0x000061c0        0x0
                0x000061c0                        . = ALIGN (0x8)
                0x000061c0                        PROVIDE (__init_array_start = .)
 *(SORT_BY_NAME(.init_array.*))
 *(.init_array*)
                0x000061c0                        PROVIDE (__init_array_end = .)

.fini_array     0x000061c0        0x0
                0x000061c0                        . = ALIGN (0x8)
                [!provide]                        PROVIDE (__fini_array_start = .)
 *(SORT_BY_NAME(.fini_array.*))
 *(.fini_array*)
                [!provide]                        PROVIDE (__fini_array_end = .)
                0x000061c0                        . = ALIGN (0x8)

.ARM.exidx      0x000061c0        0x0
                0x000061c0                        __exidx_start = .
 *(.ARM.exidx* .gnu.linkonce.armexidx.*)
                0x000061c0                        __exidx_end = .

.ARM.extab      0x000061c0        0x0
                0x000061c0                        . = ALIGN (0x8)
 *(.ARM.extab* .gnu.linkonce.armextab.*)
                0x000061c0                        . = ALIGN (0x8)
                0x000061c0                        __etext = .

.data           0x20200000       0x68 load address 0x000061c0
                0x000061c0                        __data_load__ = LOADADDR (.data)
                0x20200000                        __data_start__ = .
 *(.data)
 .data          0x20200000        0x0 CMakeFiles/MSPM0G3507_BASIC.elf.dir/empty.c.obj
 .data          0x20200000        0x0 CMakeFiles/MSPM0G3507_BASIC.elf.dir/app/syscalls_stub.c.obj
 .data          0x20200000        0x0 CMakeFiles/MSPM0G3507_BASIC.elf.dir/syscfg/ti_msp_dl_config.c.obj
 .data          0x20200000        0x0 CMakeFiles/MSPM0G3507_BASIC.elf.dir/D_/tools/ti/mspm0_sdk_2_10_00_04/source/ti/devices/msp/m0p/startup_system_files/gcc/startup_mspm0g350x_gcc.c.obj
 .data          0x20200000        0x0 CMakeFiles/MSPM0G3507_BASIC.elf.dir/D_/tools/ti/mspm0_sdk_2_10_00_04/kernel/freertos/Source/croutine.c.obj
 .data          0x20200000        0x0 CMakeFiles/MSPM0G3507_BASIC.elf.dir/D_/tools/ti/mspm0_sdk_2_10_00_04/kernel/freertos/Source/event_groups.c.obj
 .data          0x20200000        0x0 CMakeFiles/MSPM0G3507_BASIC.elf.dir/D_/tools/ti/mspm0_sdk_2_10_00_04/kernel/freertos/Source/list.c.obj
 .data          0x20200000        0x0 CMakeFiles/MSPM0G3507_BASIC.elf.dir/D_/tools/ti/mspm0_sdk_2_10_00_04/kernel/freertos/Source/queue.c.obj
 .data          0x20200000        0x0 CMakeFiles/MSPM0G3507_BASIC.elf.dir/D_/tools/ti/mspm0_sdk_2_10_00_04/kernel/freertos/Source/stream_buffer.c.obj
 .data          0x20200000        0x0 CMakeFiles/MSPM0G3507_BASIC.elf.dir/D_/tools/ti/mspm0_sdk_2_10_00_04/kernel/freertos/Source/tasks.c.obj
 .data          0x20200000        0x0 CMakeFiles/MSPM0G3507_BASIC.elf.dir/D_/tools/ti/mspm0_sdk_2_10_00_04/kernel/freertos/Source/timers.c.obj
 .data          0x20200000        0x0 CMakeFiles/MSPM0G3507_BASIC.elf.dir/D_/tools/ti/mspm0_sdk_2_10_00_04/kernel/freertos/Source/portable/MemMang/heap_4.c.obj
 .data          0x20200000        0x0 CMakeFiles/MSPM0G3507_BASIC.elf.dir/D_/tools/ti/mspm0_sdk_2_10_00_04/kernel/freertos/Source/portable/GCC/ARM_CM0/port.c.obj
 .data          0x20200000        0x0 CMakeFiles/MSPM0G3507_BASIC.elf.dir/D_/tools/ti/mspm0_sdk_2_10_00_04/kernel/freertos/Source/portable/GCC/ARM_CM0/portasm.c.obj
 .data          0x20200000        0x0 CMakeFiles/MSPM0G3507_BASIC.elf.dir/D_/tools/ti/mspm0_sdk_2_10_00_04/kernel/freertos/dpl/AppHooks_freertos.c.obj
 .data          0x20200000        0x0 CMakeFiles/MSPM0G3507_BASIC.elf.dir/app/freertos_hooks.c.obj
 .data          0x20200000        0x0 app/libapp.a(robot.c.obj)
 .data          0x20200000        0x0 bsp/libbsp.a(bsp_init.c.obj)
 .data          0x20200000        0x0 bsp/libbsp.a(bsp_dwt.c.obj)
 .data          0x20200000        0x0 bsp/libbsp.a(bsp_log.c.obj)
 .data          0x20200000        0x0 D:/tools/ti/mspm0_sdk_2_10_00_04/source/ti/driverlib/lib/gcc/m0p/mspm0g1x0x_g3x0x/driverlib.a(dl_adc12.o)
 .data          0x20200000        0x0 D:/tools/ti/mspm0_sdk_2_10_00_04/source/ti/driverlib/lib/gcc/m0p/mspm0g1x0x_g3x0x/driverlib.a(dl_common.o)
 .data          0x20200000        0x0 D:/tools/ti/mspm0_sdk_2_10_00_04/source/ti/driverlib/lib/gcc/m0p/mspm0g1x0x_g3x0x/driverlib.a(dl_i2c.o)
 .data          0x20200000        0x0 D:/tools/ti/mspm0_sdk_2_10_00_04/source/ti/driverlib/lib/gcc/m0p/mspm0g1x0x_g3x0x/driverlib.a(dl_spi.o)
 .data          0x20200000        0x0 D:/tools/ti/mspm0_sdk_2_10_00_04/source/ti/driverlib/lib/gcc/m0p/mspm0g1x0x_g3x0x/driverlib.a(dl_timer.o)
 .data          0x20200000        0x0 D:/tools/ti/mspm0_sdk_2_10_00_04/source/ti/driverlib/lib/gcc/m0p/mspm0g1x0x_g3x0x/driverlib.a(dl_uart.o)
 .data          0x20200000        0x0 D:/Program Files/STM32CubeCLT_1.21.0/GNU-tools-for-STM32/bin/../lib/gcc/arm-none-eabi/14.3.1/thumb/v6-m/nofp\libgcc.a(_udivsi3.o)
 .data          0x20200000        0x0 D:/Program Files/STM32CubeCLT_1.21.0/GNU-tools-for-STM32/bin/../lib/gcc/arm-none-eabi/14.3.1/thumb/v6-m/nofp\libgcc.a(_dvmd_tls.o)
 .data          0x20200000        0x0 D:/Program Files/STM32CubeCLT_1.21.0/GNU-tools-for-STM32/bin/../lib/gcc/arm-none-eabi/14.3.1/thumb/v6-m/nofp\libgcc.a(_arm_cmpsf2.o)
 .data          0x20200000        0x0 D:/Program Files/STM32CubeCLT_1.21.0/GNU-tools-for-STM32/bin/../lib/gcc/arm-none-eabi/14.3.1/thumb/v6-m/nofp\libgcc.a(_fixunssfsi.o)
 .data          0x20200000        0x0 D:/Program Files/STM32CubeCLT_1.21.0/GNU-tools-for-STM32/bin/../lib/gcc/arm-none-eabi/14.3.1/thumb/v6-m/nofp\libgcc.a(_fixunssfdi.o)
 .data          0x20200000        0x0 D:/Program Files/STM32CubeCLT_1.21.0/GNU-tools-for-STM32/bin/../lib/gcc/arm-none-eabi/14.3.1/thumb/v6-m/nofp\libgcc.a(divsf3.o)
 .data          0x20200000        0x0 D:/Program Files/STM32CubeCLT_1.21.0/GNU-tools-for-STM32/bin/../lib/gcc/arm-none-eabi/14.3.1/thumb/v6-m/nofp\libgcc.a(eqsf2.o)
 .data          0x20200000        0x0 D:/Program Files/STM32CubeCLT_1.21.0/GNU-tools-for-STM32/bin/../lib/gcc/arm-none-eabi/14.3.1/thumb/v6-m/nofp\libgcc.a(gesf2.o)
 .data          0x20200000        0x0 D:/Program Files/STM32CubeCLT_1.21.0/GNU-tools-for-STM32/bin/../lib/gcc/arm-none-eabi/14.3.1/thumb/v6-m/nofp\libgcc.a(lesf2.o)
 .data          0x20200000        0x0 D:/Program Files/STM32CubeCLT_1.21.0/GNU-tools-for-STM32/bin/../lib/gcc/arm-none-eabi/14.3.1/thumb/v6-m/nofp\libgcc.a(mulsf3.o)
 .data          0x20200000        0x0 D:/Program Files/STM32CubeCLT_1.21.0/GNU-tools-for-STM32/bin/../lib/gcc/arm-none-eabi/14.3.1/thumb/v6-m/nofp\libgcc.a(subsf3.o)
 .data          0x20200000        0x0 D:/Program Files/STM32CubeCLT_1.21.0/GNU-tools-for-STM32/bin/../lib/gcc/arm-none-eabi/14.3.1/thumb/v6-m/nofp\libgcc.a(fixsfsi.o)
 .data          0x20200000        0x0 D:/Program Files/STM32CubeCLT_1.21.0/GNU-tools-for-STM32/bin/../lib/gcc/arm-none-eabi/14.3.1/thumb/v6-m/nofp\libgcc.a(floatsisf.o)
 .data          0x20200000        0x0 D:/Program Files/STM32CubeCLT_1.21.0/GNU-tools-for-STM32/bin/../lib/gcc/arm-none-eabi/14.3.1/thumb/v6-m/nofp\libgcc.a(floatunsisf.o)
 .data          0x20200000        0x0 D:/Program Files/STM32CubeCLT_1.21.0/GNU-tools-for-STM32/bin/../lib/gcc/arm-none-eabi/14.3.1/thumb/v6-m/nofp\libgcc.a(divdf3.o)
 .data          0x20200000        0x0 D:/Program Files/STM32CubeCLT_1.21.0/GNU-tools-for-STM32/bin/../lib/gcc/arm-none-eabi/14.3.1/thumb/v6-m/nofp\libgcc.a(muldf3.o)
 .data          0x20200000        0x0 D:/Program Files/STM32CubeCLT_1.21.0/GNU-tools-for-STM32/bin/../lib/gcc/arm-none-eabi/14.3.1/thumb/v6-m/nofp\libgcc.a(subdf3.o)
 .data          0x20200000        0x0 D:/Program Files/STM32CubeCLT_1.21.0/GNU-tools-for-STM32/bin/../lib/gcc/arm-none-eabi/14.3.1/thumb/v6-m/nofp\libgcc.a(floatunsidf.o)
 .data          0x20200000        0x0 D:/Program Files/STM32CubeCLT_1.21.0/GNU-tools-for-STM32/bin/../lib/gcc/arm-none-eabi/14.3.1/thumb/v6-m/nofp\libgcc.a(extendsfdf2.o)
 .data          0x20200000        0x0 D:/Program Files/STM32CubeCLT_1.21.0/GNU-tools-for-STM32/bin/../lib/gcc/arm-none-eabi/14.3.1/thumb/v6-m/nofp\libgcc.a(_clzsi2.o)
 .data          0x20200000        0x0 D:/Program Files/STM32CubeCLT_1.21.0/GNU-tools-for-STM32/bin/../lib/gcc/arm-none-eabi/14.3.1/thumb/v6-m/nofp\libgcc.a(_fixunsdfsi.o)
 .data          0x20200000        0x0 D:/Program Files/STM32CubeCLT_1.21.0/GNU-tools-for-STM32/bin/../lib/gcc/arm-none-eabi/14.3.1/thumb/v6-m/nofp\libgcc.a(fixdfsi.o)
 .data          0x20200000        0x0 D:/Program Files/STM32CubeCLT_1.21.0/GNU-tools-for-STM32/bin/../lib/gcc/arm-none-eabi/14.3.1/thumb/v6-m/nofp\libgcc.a(_arm_cmpdf2.o)
 .data          0x20200000        0x0 D:/Program Files/STM32CubeCLT_1.21.0/GNU-tools-for-STM32/bin/../lib/gcc/arm-none-eabi/14.3.1/thumb/v6-m/nofp\libgcc.a(eqdf2.o)
 .data          0x20200000        0x0 D:/Program Files/STM32CubeCLT_1.21.0/GNU-tools-for-STM32/bin/../lib/gcc/arm-none-eabi/14.3.1/thumb/v6-m/nofp\libgcc.a(gedf2.o)
 .data          0x20200000        0x0 D:/Program Files/STM32CubeCLT_1.21.0/GNU-tools-for-STM32/bin/../lib/gcc/arm-none-eabi/14.3.1/thumb/v6-m/nofp\libgcc.a(ledf2.o)
 .data          0x20200000        0x0 D:/Program Files/STM32CubeCLT_1.21.0/GNU-tools-for-STM32/bin/../lib/gcc/arm-none-eabi/14.3.1/../../../../arm-none-eabi/lib/thumb/v6-m/nofp\libg_nano.a(libc_a-findfp.o)
 .data          0x20200000        0x0 D:/Program Files/STM32CubeCLT_1.21.0/GNU-tools-for-STM32/bin/../lib/gcc/arm-none-eabi/14.3.1/../../../../arm-none-eabi/lib/thumb/v6-m/nofp\libg_nano.a(libc_a-fwalk.o)
 .data          0x20200000        0x0 D:/Program Files/STM32CubeCLT_1.21.0/GNU-tools-for-STM32/bin/../lib/gcc/arm-none-eabi/14.3.1/../../../../arm-none-eabi/lib/thumb/v6-m/nofp\libg_nano.a(libc_a-sprintf.o)
 .data          0x20200000        0x0 D:/Program Files/STM32CubeCLT_1.21.0/GNU-tools-for-STM32/bin/../lib/gcc/arm-none-eabi/14.3.1/../../../../arm-none-eabi/lib/thumb/v6-m/nofp\libg_nano.a(libc_a-stdio.o)
 .data          0x20200000        0x0 D:/Program Files/STM32CubeCLT_1.21.0/GNU-tools-for-STM32/bin/../lib/gcc/arm-none-eabi/14.3.1/../../../../arm-none-eabi/lib/thumb/v6-m/nofp\libg_nano.a(libc_a-vprintf.o)
 .data          0x20200000        0x0 D:/Program Files/STM32CubeCLT_1.21.0/GNU-tools-for-STM32/bin/../lib/gcc/arm-none-eabi/14.3.1/../../../../arm-none-eabi/lib/thumb/v6-m/nofp\libg_nano.a(libc_a-memset.o)
 .data          0x20200000        0x0 D:/Program Files/STM32CubeCLT_1.21.0/GNU-tools-for-STM32/bin/../lib/gcc/arm-none-eabi/14.3.1/../../../../arm-none-eabi/lib/thumb/v6-m/nofp\libg_nano.a(libc_a-closer.o)
 .data          0x20200000        0x0 D:/Program Files/STM32CubeCLT_1.21.0/GNU-tools-for-STM32/bin/../lib/gcc/arm-none-eabi/14.3.1/../../../../arm-none-eabi/lib/thumb/v6-m/nofp\libg_nano.a(libc_a-reent.o)
 .data          0x20200000        0x0 D:/Program Files/STM32CubeCLT_1.21.0/GNU-tools-for-STM32/bin/../lib/gcc/arm-none-eabi/14.3.1/../../../../arm-none-eabi/lib/thumb/v6-m/nofp\libg_nano.a(libc_a-impure.o)
 .data          0x20200000        0x0 D:/Program Files/STM32CubeCLT_1.21.0/GNU-tools-for-STM32/bin/../lib/gcc/arm-none-eabi/14.3.1/../../../../arm-none-eabi/lib/thumb/v6-m/nofp\libg_nano.a(libc_a-lseekr.o)
 .data          0x20200000        0x0 D:/Program Files/STM32CubeCLT_1.21.0/GNU-tools-for-STM32/bin/../lib/gcc/arm-none-eabi/14.3.1/../../../../arm-none-eabi/lib/thumb/v6-m/nofp\libg_nano.a(libc_a-readr.o)
 .data          0x20200000        0x0 D:/Program Files/STM32CubeCLT_1.21.0/GNU-tools-for-STM32/bin/../lib/gcc/arm-none-eabi/14.3.1/../../../../arm-none-eabi/lib/thumb/v6-m/nofp\libg_nano.a(libc_a-writer.o)
 .data          0x20200000        0x0 D:/Program Files/STM32CubeCLT_1.21.0/GNU-tools-for-STM32/bin/../lib/gcc/arm-none-eabi/14.3.1/../../../../arm-none-eabi/lib/thumb/v6-m/nofp\libg_nano.a(libc_a-errno.o)
 .data          0x20200000        0x0 D:/Program Files/STM32CubeCLT_1.21.0/GNU-tools-for-STM32/bin/../lib/gcc/arm-none-eabi/14.3.1/../../../../arm-none-eabi/lib/thumb/v6-m/nofp\libg_nano.a(libc_a-init.o)
 .data          0x20200000        0x0 D:/Program Files/STM32CubeCLT_1.21.0/GNU-tools-for-STM32/bin/../lib/gcc/arm-none-eabi/14.3.1/../../../../arm-none-eabi/lib/thumb/v6-m/nofp\libg_nano.a(libc_a-lock.o)
 .data          0x20200000        0x0 D:/Program Files/STM32CubeCLT_1.21.0/GNU-tools-for-STM32/bin/../lib/gcc/arm-none-eabi/14.3.1/../../../../arm-none-eabi/lib/thumb/v6-m/nofp\libg_nano.a(libc_a-memcpy-stub.o)
 .data          0x20200000        0x0 D:/Program Files/STM32CubeCLT_1.21.0/GNU-tools-for-STM32/bin/../lib/gcc/arm-none-eabi/14.3.1/../../../../arm-none-eabi/lib/thumb/v6-m/nofp\libg_nano.a(libc_a-freer.o)
 .data          0x20200000        0x0 D:/Program Files/STM32CubeCLT_1.21.0/GNU-tools-for-STM32/bin/../lib/gcc/arm-none-eabi/14.3.1/../../../../arm-none-eabi/lib/thumb/v6-m/nofp\libg_nano.a(libc_a-mallocr.o)
 .data          0x20200000        0x0 D:/Program Files/STM32CubeCLT_1.21.0/GNU-tools-for-STM32/bin/../lib/gcc/arm-none-eabi/14.3.1/../../../../arm-none-eabi/lib/thumb/v6-m/nofp\libg_nano.a(libc_a-mlock.o)
 .data          0x20200000        0x0 D:/Program Files/STM32CubeCLT_1.21.0/GNU-tools-for-STM32/bin/../lib/gcc/arm-none-eabi/14.3.1/../../../../arm-none-eabi/lib/thumb/v6-m/nofp\libg_nano.a(libc_a-nano-svfprintf.o)
 .data          0x20200000        0x0 D:/Program Files/STM32CubeCLT_1.21.0/GNU-tools-for-STM32/bin/../lib/gcc/arm-none-eabi/14.3.1/../../../../arm-none-eabi/lib/thumb/v6-m/nofp\libg_nano.a(libc_a-nano-vfprintf.o)
 .data          0x20200000        0x0 D:/Program Files/STM32CubeCLT_1.21.0/GNU-tools-for-STM32/bin/../lib/gcc/arm-none-eabi/14.3.1/../../../../arm-none-eabi/lib/thumb/v6-m/nofp\libg_nano.a(libc_a-nano-vfprintf_i.o)
 .data          0x20200000        0x0 D:/Program Files/STM32CubeCLT_1.21.0/GNU-tools-for-STM32/bin/../lib/gcc/arm-none-eabi/14.3.1/../../../../arm-none-eabi/lib/thumb/v6-m/nofp\libg_nano.a(libc_a-fflush.o)
 .data          0x20200000        0x0 D:/Program Files/STM32CubeCLT_1.21.0/GNU-tools-for-STM32/bin/../lib/gcc/arm-none-eabi/14.3.1/../../../../arm-none-eabi/lib/thumb/v6-m/nofp\libg_nano.a(libc_a-fvwrite.o)
 .data          0x20200000        0x0 D:/Program Files/STM32CubeCLT_1.21.0/GNU-tools-for-STM32/bin/../lib/gcc/arm-none-eabi/14.3.1/../../../../arm-none-eabi/lib/thumb/v6-m/nofp\libg_nano.a(libc_a-wbuf.o)
 .data          0x20200000        0x0 D:/Program Files/STM32CubeCLT_1.21.0/GNU-tools-for-STM32/bin/../lib/gcc/arm-none-eabi/14.3.1/../../../../arm-none-eabi/lib/thumb/v6-m/nofp\libg_nano.a(libc_a-wsetup.o)
 .data          0x20200000        0x0 D:/Program Files/STM32CubeCLT_1.21.0/GNU-tools-for-STM32/bin/../lib/gcc/arm-none-eabi/14.3.1/../../../../arm-none-eabi/lib/thumb/v6-m/nofp\libg_nano.a(libc_a-memmove.o)
 .data          0x20200000        0x0 D:/Program Files/STM32CubeCLT_1.21.0/GNU-tools-for-STM32/bin/../lib/gcc/arm-none-eabi/14.3.1/../../../../arm-none-eabi/lib/thumb/v6-m/nofp\libg_nano.a(libc_a-sbrkr.o)
 .data          0x20200000        0x0 D:/Program Files/STM32CubeCLT_1.21.0/GNU-tools-for-STM32/bin/../lib/gcc/arm-none-eabi/14.3.1/../../../../arm-none-eabi/lib/thumb/v6-m/nofp\libg_nano.a(libc_a-memchr-stub.o)
 .data          0x20200000        0x0 D:/Program Files/STM32CubeCLT_1.21.0/GNU-tools-for-STM32/bin/../lib/gcc/arm-none-eabi/14.3.1/../../../../arm-none-eabi/lib/thumb/v6-m/nofp\libg_nano.a(libc_a-reallocr.o)
 .data          0x20200000        0x0 D:/Program Files/STM32CubeCLT_1.21.0/GNU-tools-for-STM32/bin/../lib/gcc/arm-none-eabi/14.3.1/../../../../arm-none-eabi/lib/thumb/v6-m/nofp\libg_nano.a(libc_a-makebuf.o)
 .data          0x20200000        0x0 D:/Program Files/STM32CubeCLT_1.21.0/GNU-tools-for-STM32/bin/../lib/gcc/arm-none-eabi/14.3.1/../../../../arm-none-eabi/lib/thumb/v6-m/nofp\libg_nano.a(libc_a-fstatr.o)
 .data          0x20200000        0x0 D:/Program Files/STM32CubeCLT_1.21.0/GNU-tools-for-STM32/bin/../lib/gcc/arm-none-eabi/14.3.1/../../../../arm-none-eabi/lib/thumb/v6-m/nofp\libg_nano.a(libc_a-isattyr.o)
 .data          0x20200000        0x0 D:/Program Files/STM32CubeCLT_1.21.0/GNU-tools-for-STM32/bin/../lib/gcc/arm-none-eabi/14.3.1/../../../../arm-none-eabi/lib/thumb/v6-m/nofp\libg_nano.a(libc_a-msizer.o)
 .data          0x20200000        0x0 D:/Program Files/STM32CubeCLT_1.21.0/GNU-tools-for-STM32/bin/../lib/gcc/arm-none-eabi/14.3.1/thumb/v6-m/nofp\libgcc.a(_thumb1_case_shi.o)
 .data          0x20200000        0x0 D:/Program Files/STM32CubeCLT_1.21.0/GNU-tools-for-STM32/bin/../lib/gcc/arm-none-eabi/14.3.1/thumb/v6-m/nofp\libgcc.a(_divsi3.o)
 .data          0x20200000        0x0 D:/Program Files/STM32CubeCLT_1.21.0/GNU-tools-for-STM32/bin/../lib/gcc/arm-none-eabi/14.3.1/../../../../arm-none-eabi/lib/thumb/v6-m/nofp\libnosys.a(sbrk.o)
 *(.data*)
 .data.ulCriticalNesting
                0x20200000        0x4 CMakeFiles/MSPM0G3507_BASIC.elf.dir/D_/tools/ti/mspm0_sdk_2_10_00_04/kernel/freertos/Source/portable/GCC/ARM_CM0/port.c.obj
 .data.cpu_freq_hz
                0x20200004        0x4 bsp/libbsp.a(bsp_dwt.c.obj)
 .data.__sglue  0x20200008        0xc D:/Program Files/STM32CubeCLT_1.21.0/GNU-tools-for-STM32/bin/../lib/gcc/arm-none-eabi/14.3.1/../../../../arm-none-eabi/lib/thumb/v6-m/nofp\libg_nano.a(libc_a-findfp.o)
                0x20200008                __sglue
 .data._impure_ptr
                0x20200014        0x4 D:/Program Files/STM32CubeCLT_1.21.0/GNU-tools-for-STM32/bin/../lib/gcc/arm-none-eabi/14.3.1/../../../../arm-none-eabi/lib/thumb/v6-m/nofp\libg_nano.a(libc_a-impure.o)
                0x20200014                _impure_ptr
 .data._impure_data
                0x20200018       0x4c D:/Program Files/STM32CubeCLT_1.21.0/GNU-tools-for-STM32/bin/../lib/gcc/arm-none-eabi/14.3.1/../../../../arm-none-eabi/lib/thumb/v6-m/nofp\libg_nano.a(libc_a-impure.o)
                0x20200018                _impure_data
                0x20200068                        . = ALIGN (0x8)
 *fill*         0x20200064        0x4 
                0x20200068                        __data_end__ = .

.igot.plt       0x20200068        0x0 load address 0x00006228
 .igot.plt      0x20200068        0x0 CMakeFiles/MSPM0G3507_BASIC.elf.dir/empty.c.obj

.bss            0x20200068     0x19e8
                0x20200068                        __bss_start__ = .
 *(.shbss)
 *(.bss)
 .bss           0x20200068        0x0 CMakeFiles/MSPM0G3507_BASIC.elf.dir/empty.c.obj
 .bss           0x20200068        0x0 CMakeFiles/MSPM0G3507_BASIC.elf.dir/app/syscalls_stub.c.obj
 .bss           0x20200068        0x0 CMakeFiles/MSPM0G3507_BASIC.elf.dir/syscfg/ti_msp_dl_config.c.obj
 .bss           0x20200068        0x0 CMakeFiles/MSPM0G3507_BASIC.elf.dir/D_/tools/ti/mspm0_sdk_2_10_00_04/source/ti/devices/msp/m0p/startup_system_files/gcc/startup_mspm0g350x_gcc.c.obj
 .bss           0x20200068        0x0 CMakeFiles/MSPM0G3507_BASIC.elf.dir/D_/tools/ti/mspm0_sdk_2_10_00_04/kernel/freertos/Source/croutine.c.obj
 .bss           0x20200068        0x0 CMakeFiles/MSPM0G3507_BASIC.elf.dir/D_/tools/ti/mspm0_sdk_2_10_00_04/kernel/freertos/Source/event_groups.c.obj
 .bss           0x20200068        0x0 CMakeFiles/MSPM0G3507_BASIC.elf.dir/D_/tools/ti/mspm0_sdk_2_10_00_04/kernel/freertos/Source/list.c.obj
 .bss           0x20200068        0x0 CMakeFiles/MSPM0G3507_BASIC.elf.dir/D_/tools/ti/mspm0_sdk_2_10_00_04/kernel/freertos/Source/queue.c.obj
 .bss           0x20200068        0x0 CMakeFiles/MSPM0G3507_BASIC.elf.dir/D_/tools/ti/mspm0_sdk_2_10_00_04/kernel/freertos/Source/stream_buffer.c.obj
 .bss           0x20200068        0x0 CMakeFiles/MSPM0G3507_BASIC.elf.dir/D_/tools/ti/mspm0_sdk_2_10_00_04/kernel/freertos/Source/tasks.c.obj
 .bss           0x20200068        0x0 CMakeFiles/MSPM0G3507_BASIC.elf.dir/D_/tools/ti/mspm0_sdk_2_10_00_04/kernel/freertos/Source/timers.c.obj
 .bss           0x20200068        0x0 CMakeFiles/MSPM0G3507_BASIC.elf.dir/D_/tools/ti/mspm0_sdk_2_10_00_04/kernel/freertos/Source/portable/MemMang/heap_4.c.obj
 .bss           0x20200068        0x0 CMakeFiles/MSPM0G3507_BASIC.elf.dir/D_/tools/ti/mspm0_sdk_2_10_00_04/kernel/freertos/Source/portable/GCC/ARM_CM0/port.c.obj
 .bss           0x20200068        0x0 CMakeFiles/MSPM0G3507_BASIC.elf.dir/D_/tools/ti/mspm0_sdk_2_10_00_04/kernel/freertos/Source/portable/GCC/ARM_CM0/portasm.c.obj
 .bss           0x20200068        0x0 CMakeFiles/MSPM0G3507_BASIC.elf.dir/D_/tools/ti/mspm0_sdk_2_10_00_04/kernel/freertos/dpl/AppHooks_freertos.c.obj
 .bss           0x20200068        0x0 CMakeFiles/MSPM0G3507_BASIC.elf.dir/app/freertos_hooks.c.obj
 .bss           0x20200068        0x0 app/libapp.a(robot.c.obj)
 .bss           0x20200068        0x0 bsp/libbsp.a(bsp_init.c.obj)
 .bss           0x20200068        0x0 bsp/libbsp.a(bsp_dwt.c.obj)
 .bss           0x20200068        0x0 bsp/libbsp.a(bsp_log.c.obj)
 .bss           0x20200068        0x0 D:/tools/ti/mspm0_sdk_2_10_00_04/source/ti/driverlib/lib/gcc/m0p/mspm0g1x0x_g3x0x/driverlib.a(dl_adc12.o)
 .bss           0x20200068        0x0 D:/tools/ti/mspm0_sdk_2_10_00_04/source/ti/driverlib/lib/gcc/m0p/mspm0g1x0x_g3x0x/driverlib.a(dl_common.o)
 .bss           0x20200068        0x0 D:/tools/ti/mspm0_sdk_2_10_00_04/source/ti/driverlib/lib/gcc/m0p/mspm0g1x0x_g3x0x/driverlib.a(dl_i2c.o)
 .bss           0x20200068        0x0 D:/tools/ti/mspm0_sdk_2_10_00_04/source/ti/driverlib/lib/gcc/m0p/mspm0g1x0x_g3x0x/driverlib.a(dl_spi.o)
 .bss           0x20200068        0x0 D:/tools/ti/mspm0_sdk_2_10_00_04/source/ti/driverlib/lib/gcc/m0p/mspm0g1x0x_g3x0x/driverlib.a(dl_timer.o)
 .bss           0x20200068        0x0 D:/tools/ti/mspm0_sdk_2_10_00_04/source/ti/driverlib/lib/gcc/m0p/mspm0g1x0x_g3x0x/driverlib.a(dl_uart.o)
 .bss           0x20200068        0x0 D:/Program Files/STM32CubeCLT_1.21.0/GNU-tools-for-STM32/bin/../lib/gcc/arm-none-eabi/14.3.1/thumb/v6-m/nofp\libgcc.a(_udivsi3.o)
 .bss           0x20200068        0x0 D:/Program Files/STM32CubeCLT_1.21.0/GNU-tools-for-STM32/bin/../lib/gcc/arm-none-eabi/14.3.1/thumb/v6-m/nofp\libgcc.a(_dvmd_tls.o)
 .bss           0x20200068        0x0 D:/Program Files/STM32CubeCLT_1.21.0/GNU-tools-for-STM32/bin/../lib/gcc/arm-none-eabi/14.3.1/thumb/v6-m/nofp\libgcc.a(_arm_cmpsf2.o)
 .bss           0x20200068        0x0 D:/Program Files/STM32CubeCLT_1.21.0/GNU-tools-for-STM32/bin/../lib/gcc/arm-none-eabi/14.3.1/thumb/v6-m/nofp\libgcc.a(_fixunssfsi.o)
 .bss           0x20200068        0x0 D:/Program Files/STM32CubeCLT_1.21.0/GNU-tools-for-STM32/bin/../lib/gcc/arm-none-eabi/14.3.1/thumb/v6-m/nofp\libgcc.a(_fixunssfdi.o)
 .bss           0x20200068        0x0 D:/Program Files/STM32CubeCLT_1.21.0/GNU-tools-for-STM32/bin/../lib/gcc/arm-none-eabi/14.3.1/thumb/v6-m/nofp\libgcc.a(divsf3.o)
 .bss           0x20200068        0x0 D:/Program Files/STM32CubeCLT_1.21.0/GNU-tools-for-STM32/bin/../lib/gcc/arm-none-eabi/14.3.1/thumb/v6-m/nofp\libgcc.a(eqsf2.o)
 .bss           0x20200068        0x0 D:/Program Files/STM32CubeCLT_1.21.0/GNU-tools-for-STM32/bin/../lib/gcc/arm-none-eabi/14.3.1/thumb/v6-m/nofp\libgcc.a(gesf2.o)
 .bss           0x20200068        0x0 D:/Program Files/STM32CubeCLT_1.21.0/GNU-tools-for-STM32/bin/../lib/gcc/arm-none-eabi/14.3.1/thumb/v6-m/nofp\libgcc.a(lesf2.o)
 .bss           0x20200068        0x0 D:/Program Files/STM32CubeCLT_1.21.0/GNU-tools-for-STM32/bin/../lib/gcc/arm-none-eabi/14.3.1/thumb/v6-m/nofp\libgcc.a(mulsf3.o)
 .bss           0x20200068        0x0 D:/Program Files/STM32CubeCLT_1.21.0/GNU-tools-for-STM32/bin/../lib/gcc/arm-none-eabi/14.3.1/thumb/v6-m/nofp\libgcc.a(subsf3.o)
 .bss           0x20200068        0x0 D:/Program Files/STM32CubeCLT_1.21.0/GNU-tools-for-STM32/bin/../lib/gcc/arm-none-eabi/14.3.1/thumb/v6-m/nofp\libgcc.a(fixsfsi.o)
 .bss           0x20200068        0x0 D:/Program Files/STM32CubeCLT_1.21.0/GNU-tools-for-STM32/bin/../lib/gcc/arm-none-eabi/14.3.1/thumb/v6-m/nofp\libgcc.a(floatsisf.o)
 .bss           0x20200068        0x0 D:/Program Files/STM32CubeCLT_1.21.0/GNU-tools-for-STM32/bin/../lib/gcc/arm-none-eabi/14.3.1/thumb/v6-m/nofp\libgcc.a(floatunsisf.o)
 .bss           0x20200068        0x0 D:/Program Files/STM32CubeCLT_1.21.0/GNU-tools-for-STM32/bin/../lib/gcc/arm-none-eabi/14.3.1/thumb/v6-m/nofp\libgcc.a(divdf3.o)
 .bss           0x20200068        0x0 D:/Program Files/STM32CubeCLT_1.21.0/GNU-tools-for-STM32/bin/../lib/gcc/arm-none-eabi/14.3.1/thumb/v6-m/nofp\libgcc.a(muldf3.o)
 .bss           0x20200068        0x0 D:/Program Files/STM32CubeCLT_1.21.0/GNU-tools-for-STM32/bin/../lib/gcc/arm-none-eabi/14.3.1/thumb/v6-m/nofp\libgcc.a(subdf3.o)
 .bss           0x20200068        0x0 D:/Program Files/STM32CubeCLT_1.21.0/GNU-tools-for-STM32/bin/../lib/gcc/arm-none-eabi/14.3.1/thumb/v6-m/nofp\libgcc.a(floatunsidf.o)
 .bss           0x20200068        0x0 D:/Program Files/STM32CubeCLT_1.21.0/GNU-tools-for-STM32/bin/../lib/gcc/arm-none-eabi/14.3.1/thumb/v6-m/nofp\libgcc.a(extendsfdf2.o)
 .bss           0x20200068        0x0 D:/Program Files/STM32CubeCLT_1.21.0/GNU-tools-for-STM32/bin/../lib/gcc/arm-none-eabi/14.3.1/thumb/v6-m/nofp\libgcc.a(_clzsi2.o)
 .bss           0x20200068        0x0 D:/Program Files/STM32CubeCLT_1.21.0/GNU-tools-for-STM32/bin/../lib/gcc/arm-none-eabi/14.3.1/thumb/v6-m/nofp\libgcc.a(_fixunsdfsi.o)
 .bss           0x20200068        0x0 D:/Program Files/STM32CubeCLT_1.21.0/GNU-tools-for-STM32/bin/../lib/gcc/arm-none-eabi/14.3.1/thumb/v6-m/nofp\libgcc.a(fixdfsi.o)
 .bss           0x20200068        0x0 D:/Program Files/STM32CubeCLT_1.21.0/GNU-tools-for-STM32/bin/../lib/gcc/arm-none-eabi/14.3.1/thumb/v6-m/nofp\libgcc.a(_arm_cmpdf2.o)
 .bss           0x20200068        0x0 D:/Program Files/STM32CubeCLT_1.21.0/GNU-tools-for-STM32/bin/../lib/gcc/arm-none-eabi/14.3.1/thumb/v6-m/nofp\libgcc.a(eqdf2.o)
 .bss           0x20200068        0x0 D:/Program Files/STM32CubeCLT_1.21.0/GNU-tools-for-STM32/bin/../lib/gcc/arm-none-eabi/14.3.1/thumb/v6-m/nofp\libgcc.a(gedf2.o)
 .bss           0x20200068        0x0 D:/Program Files/STM32CubeCLT_1.21.0/GNU-tools-for-STM32/bin/../lib/gcc/arm-none-eabi/14.3.1/thumb/v6-m/nofp\libgcc.a(ledf2.o)
 .bss           0x20200068        0x0 D:/Program Files/STM32CubeCLT_1.21.0/GNU-tools-for-STM32/bin/../lib/gcc/arm-none-eabi/14.3.1/../../../../arm-none-eabi/lib/thumb/v6-m/nofp\libg_nano.a(libc_a-findfp.o)
 .bss           0x20200068        0x0 D:/Program Files/STM32CubeCLT_1.21.0/GNU-tools-for-STM32/bin/../lib/gcc/arm-none-eabi/14.3.1/../../../../arm-none-eabi/lib/thumb/v6-m/nofp\libg_nano.a(libc_a-fwalk.o)
 .bss           0x20200068        0x0 D:/Program Files/STM32CubeCLT_1.21.0/GNU-tools-for-STM32/bin/../lib/gcc/arm-none-eabi/14.3.1/../../../../arm-none-eabi/lib/thumb/v6-m/nofp\libg_nano.a(libc_a-sprintf.o)
 .bss           0x20200068        0x0 D:/Program Files/STM32CubeCLT_1.21.0/GNU-tools-for-STM32/bin/../lib/gcc/arm-none-eabi/14.3.1/../../../../arm-none-eabi/lib/thumb/v6-m/nofp\libg_nano.a(libc_a-stdio.o)
 .bss           0x20200068        0x0 D:/Program Files/STM32CubeCLT_1.21.0/GNU-tools-for-STM32/bin/../lib/gcc/arm-none-eabi/14.3.1/../../../../arm-none-eabi/lib/thumb/v6-m/nofp\libg_nano.a(libc_a-vprintf.o)
 .bss           0x20200068        0x0 D:/Program Files/STM32CubeCLT_1.21.0/GNU-tools-for-STM32/bin/../lib/gcc/arm-none-eabi/14.3.1/../../../../arm-none-eabi/lib/thumb/v6-m/nofp\libg_nano.a(libc_a-memset.o)
 .bss           0x20200068        0x0 D:/Program Files/STM32CubeCLT_1.21.0/GNU-tools-for-STM32/bin/../lib/gcc/arm-none-eabi/14.3.1/../../../../arm-none-eabi/lib/thumb/v6-m/nofp\libg_nano.a(libc_a-closer.o)
 .bss           0x20200068        0x0 D:/Program Files/STM32CubeCLT_1.21.0/GNU-tools-for-STM32/bin/../lib/gcc/arm-none-eabi/14.3.1/../../../../arm-none-eabi/lib/thumb/v6-m/nofp\libg_nano.a(libc_a-reent.o)
 .bss           0x20200068        0x0 D:/Program Files/STM32CubeCLT_1.21.0/GNU-tools-for-STM32/bin/../lib/gcc/arm-none-eabi/14.3.1/../../../../arm-none-eabi/lib/thumb/v6-m/nofp\libg_nano.a(libc_a-impure.o)
 .bss           0x20200068        0x0 D:/Program Files/STM32CubeCLT_1.21.0/GNU-tools-for-STM32/bin/../lib/gcc/arm-none-eabi/14.3.1/../../../../arm-none-eabi/lib/thumb/v6-m/nofp\libg_nano.a(libc_a-lseekr.o)
 .bss           0x20200068        0x0 D:/Program Files/STM32CubeCLT_1.21.0/GNU-tools-for-STM32/bin/../lib/gcc/arm-none-eabi/14.3.1/../../../../arm-none-eabi/lib/thumb/v6-m/nofp\libg_nano.a(libc_a-readr.o)
 .bss           0x20200068        0x0 D:/Program Files/STM32CubeCLT_1.21.0/GNU-tools-for-STM32/bin/../lib/gcc/arm-none-eabi/14.3.1/../../../../arm-none-eabi/lib/thumb/v6-m/nofp\libg_nano.a(libc_a-writer.o)
 .bss           0x20200068        0x0 D:/Program Files/STM32CubeCLT_1.21.0/GNU-tools-for-STM32/bin/../lib/gcc/arm-none-eabi/14.3.1/../../../../arm-none-eabi/lib/thumb/v6-m/nofp\libg_nano.a(libc_a-errno.o)
 .bss           0x20200068        0x0 D:/Program Files/STM32CubeCLT_1.21.0/GNU-tools-for-STM32/bin/../lib/gcc/arm-none-eabi/14.3.1/../../../../arm-none-eabi/lib/thumb/v6-m/nofp\libg_nano.a(libc_a-init.o)
 .bss           0x20200068        0x0 D:/Program Files/STM32CubeCLT_1.21.0/GNU-tools-for-STM32/bin/../lib/gcc/arm-none-eabi/14.3.1/../../../../arm-none-eabi/lib/thumb/v6-m/nofp\libg_nano.a(libc_a-lock.o)
 .bss           0x20200068        0x0 D:/Program Files/STM32CubeCLT_1.21.0/GNU-tools-for-STM32/bin/../lib/gcc/arm-none-eabi/14.3.1/../../../../arm-none-eabi/lib/thumb/v6-m/nofp\libg_nano.a(libc_a-memcpy-stub.o)
 .bss           0x20200068        0x0 D:/Program Files/STM32CubeCLT_1.21.0/GNU-tools-for-STM32/bin/../lib/gcc/arm-none-eabi/14.3.1/../../../../arm-none-eabi/lib/thumb/v6-m/nofp\libg_nano.a(libc_a-freer.o)
 .bss           0x20200068        0x0 D:/Program Files/STM32CubeCLT_1.21.0/GNU-tools-for-STM32/bin/../lib/gcc/arm-none-eabi/14.3.1/../../../../arm-none-eabi/lib/thumb/v6-m/nofp\libg_nano.a(libc_a-mallocr.o)
 .bss           0x20200068        0x0 D:/Program Files/STM32CubeCLT_1.21.0/GNU-tools-for-STM32/bin/../lib/gcc/arm-none-eabi/14.3.1/../../../../arm-none-eabi/lib/thumb/v6-m/nofp\libg_nano.a(libc_a-mlock.o)
 .bss           0x20200068        0x0 D:/Program Files/STM32CubeCLT_1.21.0/GNU-tools-for-STM32/bin/../lib/gcc/arm-none-eabi/14.3.1/../../../../arm-none-eabi/lib/thumb/v6-m/nofp\libg_nano.a(libc_a-nano-svfprintf.o)
 .bss           0x20200068        0x0 D:/Program Files/STM32CubeCLT_1.21.0/GNU-tools-for-STM32/bin/../lib/gcc/arm-none-eabi/14.3.1/../../../../arm-none-eabi/lib/thumb/v6-m/nofp\libg_nano.a(libc_a-nano-vfprintf.o)
 .bss           0x20200068        0x0 D:/Program Files/STM32CubeCLT_1.21.0/GNU-tools-for-STM32/bin/../lib/gcc/arm-none-eabi/14.3.1/../../../../arm-none-eabi/lib/thumb/v6-m/nofp\libg_nano.a(libc_a-nano-vfprintf_i.o)
 .bss           0x20200068        0x0 D:/Program Files/STM32CubeCLT_1.21.0/GNU-tools-for-STM32/bin/../lib/gcc/arm-none-eabi/14.3.1/../../../../arm-none-eabi/lib/thumb/v6-m/nofp\libg_nano.a(libc_a-fflush.o)
 .bss           0x20200068        0x0 D:/Program Files/STM32CubeCLT_1.21.0/GNU-tools-for-STM32/bin/../lib/gcc/arm-none-eabi/14.3.1/../../../../arm-none-eabi/lib/thumb/v6-m/nofp\libg_nano.a(libc_a-fvwrite.o)
 .bss           0x20200068        0x0 D:/Program Files/STM32CubeCLT_1.21.0/GNU-tools-for-STM32/bin/../lib/gcc/arm-none-eabi/14.3.1/../../../../arm-none-eabi/lib/thumb/v6-m/nofp\libg_nano.a(libc_a-wbuf.o)
 .bss           0x20200068        0x0 D:/Program Files/STM32CubeCLT_1.21.0/GNU-tools-for-STM32/bin/../lib/gcc/arm-none-eabi/14.3.1/../../../../arm-none-eabi/lib/thumb/v6-m/nofp\libg_nano.a(libc_a-wsetup.o)
 .bss           0x20200068        0x0 D:/Program Files/STM32CubeCLT_1.21.0/GNU-tools-for-STM32/bin/../lib/gcc/arm-none-eabi/14.3.1/../../../../arm-none-eabi/lib/thumb/v6-m/nofp\libg_nano.a(libc_a-memmove.o)
 .bss           0x20200068        0x0 D:/Program Files/STM32CubeCLT_1.21.0/GNU-tools-for-STM32/bin/../lib/gcc/arm-none-eabi/14.3.1/../../../../arm-none-eabi/lib/thumb/v6-m/nofp\libg_nano.a(libc_a-sbrkr.o)
 .bss           0x20200068        0x0 D:/Program Files/STM32CubeCLT_1.21.0/GNU-tools-for-STM32/bin/../lib/gcc/arm-none-eabi/14.3.1/../../../../arm-none-eabi/lib/thumb/v6-m/nofp\libg_nano.a(libc_a-memchr-stub.o)
 .bss           0x20200068        0x0 D:/Program Files/STM32CubeCLT_1.21.0/GNU-tools-for-STM32/bin/../lib/gcc/arm-none-eabi/14.3.1/../../../../arm-none-eabi/lib/thumb/v6-m/nofp\libg_nano.a(libc_a-reallocr.o)
 .bss           0x20200068        0x0 D:/Program Files/STM32CubeCLT_1.21.0/GNU-tools-for-STM32/bin/../lib/gcc/arm-none-eabi/14.3.1/../../../../arm-none-eabi/lib/thumb/v6-m/nofp\libg_nano.a(libc_a-makebuf.o)
 .bss           0x20200068        0x0 D:/Program Files/STM32CubeCLT_1.21.0/GNU-tools-for-STM32/bin/../lib/gcc/arm-none-eabi/14.3.1/../../../../arm-none-eabi/lib/thumb/v6-m/nofp\libg_nano.a(libc_a-fstatr.o)
 .bss           0x20200068        0x0 D:/Program Files/STM32CubeCLT_1.21.0/GNU-tools-for-STM32/bin/../lib/gcc/arm-none-eabi/14.3.1/../../../../arm-none-eabi/lib/thumb/v6-m/nofp\libg_nano.a(libc_a-isattyr.o)
 .bss           0x20200068        0x0 D:/Program Files/STM32CubeCLT_1.21.0/GNU-tools-for-STM32/bin/../lib/gcc/arm-none-eabi/14.3.1/../../../../arm-none-eabi/lib/thumb/v6-m/nofp\libg_nano.a(libc_a-msizer.o)
 .bss           0x20200068        0x0 D:/Program Files/STM32CubeCLT_1.21.0/GNU-tools-for-STM32/bin/../lib/gcc/arm-none-eabi/14.3.1/thumb/v6-m/nofp\libgcc.a(_thumb1_case_shi.o)
 .bss           0x20200068        0x0 D:/Program Files/STM32CubeCLT_1.21.0/GNU-tools-for-STM32/bin/../lib/gcc/arm-none-eabi/14.3.1/thumb/v6-m/nofp\libgcc.a(_divsi3.o)
 .bss           0x20200068        0x0 D:/Program Files/STM32CubeCLT_1.21.0/GNU-tools-for-STM32/bin/../lib/gcc/arm-none-eabi/14.3.1/../../../../arm-none-eabi/lib/thumb/v6-m/nofp\libnosys.a(sbrk.o)
 *(.bss.*)
 .bss.gSPI_0Backup
                0x20200068       0x28 CMakeFiles/MSPM0G3507_BASIC.elf.dir/syscfg/ti_msp_dl_config.c.obj
                0x20200068                gSPI_0Backup
 .bss.gTIMER_0Backup
                0x20200090       0xbc CMakeFiles/MSPM0G3507_BASIC.elf.dir/syscfg/ti_msp_dl_config.c.obj
                0x20200090                gTIMER_0Backup
 .bss.gPWM_3Backup
                0x2020014c       0xbc CMakeFiles/MSPM0G3507_BASIC.elf.dir/syscfg/ti_msp_dl_config.c.obj
                0x2020014c                gPWM_3Backup
 .bss.gPWM_1Backup
                0x20200208       0xa0 CMakeFiles/MSPM0G3507_BASIC.elf.dir/syscfg/ti_msp_dl_config.c.obj
                0x20200208                gPWM_1Backup
 .bss.gPWM_0Backup
                0x202002a8       0xa0 CMakeFiles/MSPM0G3507_BASIC.elf.dir/syscfg/ti_msp_dl_config.c.obj
                0x202002a8                gPWM_0Backup
 .bss.uxSchedulerSuspended
                0x20200348        0x4 CMakeFiles/MSPM0G3507_BASIC.elf.dir/D_/tools/ti/mspm0_sdk_2_10_00_04/kernel/freertos/Source/tasks.c.obj
 .bss.xIdleTaskHandles
                0x2020034c        0x4 CMakeFiles/MSPM0G3507_BASIC.elf.dir/D_/tools/ti/mspm0_sdk_2_10_00_04/kernel/freertos/Source/tasks.c.obj
 .bss.xNextTaskUnblockTime
                0x20200350        0x4 CMakeFiles/MSPM0G3507_BASIC.elf.dir/D_/tools/ti/mspm0_sdk_2_10_00_04/kernel/freertos/Source/tasks.c.obj
 .bss.uxTaskNumber
                0x20200354        0x4 CMakeFiles/MSPM0G3507_BASIC.elf.dir/D_/tools/ti/mspm0_sdk_2_10_00_04/kernel/freertos/Source/tasks.c.obj
 .bss.xNumOfOverflows
                0x20200358        0x4 CMakeFiles/MSPM0G3507_BASIC.elf.dir/D_/tools/ti/mspm0_sdk_2_10_00_04/kernel/freertos/Source/tasks.c.obj
 .bss.xYieldPendings
                0x2020035c        0x4 CMakeFiles/MSPM0G3507_BASIC.elf.dir/D_/tools/ti/mspm0_sdk_2_10_00_04/kernel/freertos/Source/tasks.c.obj
 .bss.xPendedTicks
                0x20200360        0x4 CMakeFiles/MSPM0G3507_BASIC.elf.dir/D_/tools/ti/mspm0_sdk_2_10_00_04/kernel/freertos/Source/tasks.c.obj
 .bss.xSchedulerRunning
                0x20200364        0x4 CMakeFiles/MSPM0G3507_BASIC.elf.dir/D_/tools/ti/mspm0_sdk_2_10_00_04/kernel/freertos/Source/tasks.c.obj
 .bss.uxTopReadyPriority
                0x20200368        0x4 CMakeFiles/MSPM0G3507_BASIC.elf.dir/D_/tools/ti/mspm0_sdk_2_10_00_04/kernel/freertos/Source/tasks.c.obj
 .bss.xTickCount
                0x2020036c        0x4 CMakeFiles/MSPM0G3507_BASIC.elf.dir/D_/tools/ti/mspm0_sdk_2_10_00_04/kernel/freertos/Source/tasks.c.obj
 .bss.uxCurrentNumberOfTasks
                0x20200370        0x4 CMakeFiles/MSPM0G3507_BASIC.elf.dir/D_/tools/ti/mspm0_sdk_2_10_00_04/kernel/freertos/Source/tasks.c.obj
 .bss.xSuspendedTaskList
                0x20200374       0x14 CMakeFiles/MSPM0G3507_BASIC.elf.dir/D_/tools/ti/mspm0_sdk_2_10_00_04/kernel/freertos/Source/tasks.c.obj
 .bss.uxDeletedTasksWaitingCleanUp
                0x20200388        0x4 CMakeFiles/MSPM0G3507_BASIC.elf.dir/D_/tools/ti/mspm0_sdk_2_10_00_04/kernel/freertos/Source/tasks.c.obj
 .bss.xTasksWaitingTermination
                0x2020038c       0x14 CMakeFiles/MSPM0G3507_BASIC.elf.dir/D_/tools/ti/mspm0_sdk_2_10_00_04/kernel/freertos/Source/tasks.c.obj
 .bss.xPendingReadyList
                0x202003a0       0x14 CMakeFiles/MSPM0G3507_BASIC.elf.dir/D_/tools/ti/mspm0_sdk_2_10_00_04/kernel/freertos/Source/tasks.c.obj
 .bss.pxOverflowDelayedTaskList
                0x202003b4        0x4 CMakeFiles/MSPM0G3507_BASIC.elf.dir/D_/tools/ti/mspm0_sdk_2_10_00_04/kernel/freertos/Source/tasks.c.obj
 .bss.pxDelayedTaskList
                0x202003b8        0x4 CMakeFiles/MSPM0G3507_BASIC.elf.dir/D_/tools/ti/mspm0_sdk_2_10_00_04/kernel/freertos/Source/tasks.c.obj
 .bss.xDelayedTaskList2
                0x202003bc       0x14 CMakeFiles/MSPM0G3507_BASIC.elf.dir/D_/tools/ti/mspm0_sdk_2_10_00_04/kernel/freertos/Source/tasks.c.obj
 .bss.xDelayedTaskList1
                0x202003d0       0x14 CMakeFiles/MSPM0G3507_BASIC.elf.dir/D_/tools/ti/mspm0_sdk_2_10_00_04/kernel/freertos/Source/tasks.c.obj
 .bss.pxReadyTasksLists
                0x202003e4       0xc8 CMakeFiles/MSPM0G3507_BASIC.elf.dir/D_/tools/ti/mspm0_sdk_2_10_00_04/kernel/freertos/Source/tasks.c.obj
 .bss.pxCurrentTCB
                0x202004ac        0x4 CMakeFiles/MSPM0G3507_BASIC.elf.dir/D_/tools/ti/mspm0_sdk_2_10_00_04/kernel/freertos/Source/tasks.c.obj
                0x202004ac                pxCurrentTCB
 .bss.xStaticTimerQueue.0
                0x202004b0       0x50 CMakeFiles/MSPM0G3507_BASIC.elf.dir/D_/tools/ti/mspm0_sdk_2_10_00_04/kernel/freertos/Source/timers.c.obj
 .bss.ucStaticTimerQueueStorage.1
                0x20200500       0x78 CMakeFiles/MSPM0G3507_BASIC.elf.dir/D_/tools/ti/mspm0_sdk_2_10_00_04/kernel/freertos/Source/timers.c.obj
 .bss.xLastTime.2
                0x20200578        0x4 CMakeFiles/MSPM0G3507_BASIC.elf.dir/D_/tools/ti/mspm0_sdk_2_10_00_04/kernel/freertos/Source/timers.c.obj
 .bss.xTimerTaskHandle
                0x2020057c        0x4 CMakeFiles/MSPM0G3507_BASIC.elf.dir/D_/tools/ti/mspm0_sdk_2_10_00_04/kernel/freertos/Source/timers.c.obj
 .bss.xTimerQueue
                0x20200580        0x4 CMakeFiles/MSPM0G3507_BASIC.elf.dir/D_/tools/ti/mspm0_sdk_2_10_00_04/kernel/freertos/Source/timers.c.obj
 .bss.pxOverflowTimerList
                0x20200584        0x4 CMakeFiles/MSPM0G3507_BASIC.elf.dir/D_/tools/ti/mspm0_sdk_2_10_00_04/kernel/freertos/Source/timers.c.obj
 .bss.pxCurrentTimerList
                0x20200588        0x4 CMakeFiles/MSPM0G3507_BASIC.elf.dir/D_/tools/ti/mspm0_sdk_2_10_00_04/kernel/freertos/Source/timers.c.obj
 .bss.xActiveTimerList2
                0x2020058c       0x14 CMakeFiles/MSPM0G3507_BASIC.elf.dir/D_/tools/ti/mspm0_sdk_2_10_00_04/kernel/freertos/Source/timers.c.obj
 .bss.xActiveTimerList1
                0x202005a0       0x14 CMakeFiles/MSPM0G3507_BASIC.elf.dir/D_/tools/ti/mspm0_sdk_2_10_00_04/kernel/freertos/Source/timers.c.obj
 .bss.xNumberOfSuccessfulFrees
                0x202005b4        0x4 CMakeFiles/MSPM0G3507_BASIC.elf.dir/D_/tools/ti/mspm0_sdk_2_10_00_04/kernel/freertos/Source/portable/MemMang/heap_4.c.obj
 .bss.xNumberOfSuccessfulAllocations
                0x202005b8        0x4 CMakeFiles/MSPM0G3507_BASIC.elf.dir/D_/tools/ti/mspm0_sdk_2_10_00_04/kernel/freertos/Source/portable/MemMang/heap_4.c.obj
 .bss.xMinimumEverFreeBytesRemaining
                0x202005bc        0x4 CMakeFiles/MSPM0G3507_BASIC.elf.dir/D_/tools/ti/mspm0_sdk_2_10_00_04/kernel/freertos/Source/portable/MemMang/heap_4.c.obj
 .bss.xFreeBytesRemaining
                0x202005c0        0x4 CMakeFiles/MSPM0G3507_BASIC.elf.dir/D_/tools/ti/mspm0_sdk_2_10_00_04/kernel/freertos/Source/portable/MemMang/heap_4.c.obj
 .bss.pxEnd     0x202005c4        0x4 CMakeFiles/MSPM0G3507_BASIC.elf.dir/D_/tools/ti/mspm0_sdk_2_10_00_04/kernel/freertos/Source/portable/MemMang/heap_4.c.obj
 .bss.xStart    0x202005c8        0x8 CMakeFiles/MSPM0G3507_BASIC.elf.dir/D_/tools/ti/mspm0_sdk_2_10_00_04/kernel/freertos/Source/portable/MemMang/heap_4.c.obj
 .bss.ucHeap    0x202005d0      0xc00 CMakeFiles/MSPM0G3507_BASIC.elf.dir/D_/tools/ti/mspm0_sdk_2_10_00_04/kernel/freertos/Source/portable/MemMang/heap_4.c.obj
 .bss.ulStoppedTimerCompensation
                0x202011d0        0x4 CMakeFiles/MSPM0G3507_BASIC.elf.dir/D_/tools/ti/mspm0_sdk_2_10_00_04/kernel/freertos/Source/portable/GCC/ARM_CM0/port.c.obj
 .bss.xMaximumPossibleSuppressedTicks
                0x202011d4        0x4 CMakeFiles/MSPM0G3507_BASIC.elf.dir/D_/tools/ti/mspm0_sdk_2_10_00_04/kernel/freertos/Source/portable/GCC/ARM_CM0/port.c.obj
 .bss.ulTimerCountsForOneTick
                0x202011d8        0x4 CMakeFiles/MSPM0G3507_BASIC.elf.dir/D_/tools/ti/mspm0_sdk_2_10_00_04/kernel/freertos/Source/portable/GCC/ARM_CM0/port.c.obj
 .bss.timer_stack.0
                0x202011dc      0x200 CMakeFiles/MSPM0G3507_BASIC.elf.dir/app/freertos_hooks.c.obj
 *fill*         0x202013dc        0x4 
 .bss.timer_tcb.1
                0x202013e0      0x188 CMakeFiles/MSPM0G3507_BASIC.elf.dir/app/freertos_hooks.c.obj
 .bss.idle_stack.2
                0x20201568      0x200 CMakeFiles/MSPM0G3507_BASIC.elf.dir/app/freertos_hooks.c.obj
 .bss.idle_tcb.3
                0x20201768      0x188 CMakeFiles/MSPM0G3507_BASIC.elf.dir/app/freertos_hooks.c.obj
 .bss.robot_dt.0
                0x202018f0        0x4 app/libapp.a(robot.c.obj)
 .bss.robot_start.1
                0x202018f4        0x4 app/libapp.a(robot.c.obj)
 .bss.robotTaskHandle
                0x202018f8        0x4 app/libapp.a(robot.c.obj)
                0x202018f8                robotTaskHandle
 .bss.__sf      0x202018fc      0x138 D:/Program Files/STM32CubeCLT_1.21.0/GNU-tools-for-STM32/bin/../lib/gcc/arm-none-eabi/14.3.1/../../../../arm-none-eabi/lib/thumb/v6-m/nofp\libg_nano.a(libc_a-findfp.o)
                0x202018fc                __sf
 .bss.__stdio_exit_handler
                0x20201a34        0x4 D:/Program Files/STM32CubeCLT_1.21.0/GNU-tools-for-STM32/bin/../lib/gcc/arm-none-eabi/14.3.1/../../../../arm-none-eabi/lib/thumb/v6-m/nofp\libg_nano.a(libc_a-findfp.o)
                0x20201a34                __stdio_exit_handler
 .bss.errno     0x20201a38        0x4 D:/Program Files/STM32CubeCLT_1.21.0/GNU-tools-for-STM32/bin/../lib/gcc/arm-none-eabi/14.3.1/../../../../arm-none-eabi/lib/thumb/v6-m/nofp\libg_nano.a(libc_a-reent.o)
                0x20201a38                errno
 .bss.__lock___malloc_recursive_mutex
                0x20201a3c        0x1 D:/Program Files/STM32CubeCLT_1.21.0/GNU-tools-for-STM32/bin/../lib/gcc/arm-none-eabi/14.3.1/../../../../arm-none-eabi/lib/thumb/v6-m/nofp\libg_nano.a(libc_a-lock.o)
                0x20201a3c                __lock___malloc_recursive_mutex
 .bss.__lock___sfp_recursive_mutex
                0x20201a3d        0x1 D:/Program Files/STM32CubeCLT_1.21.0/GNU-tools-for-STM32/bin/../lib/gcc/arm-none-eabi/14.3.1/../../../../arm-none-eabi/lib/thumb/v6-m/nofp\libg_nano.a(libc_a-lock.o)
                0x20201a3d                __lock___sfp_recursive_mutex
 *fill*         0x20201a3e        0x2 
 .bss.__malloc_sbrk_start
                0x20201a40        0x4 D:/Program Files/STM32CubeCLT_1.21.0/GNU-tools-for-STM32/bin/../lib/gcc/arm-none-eabi/14.3.1/../../../../arm-none-eabi/lib/thumb/v6-m/nofp\libg_nano.a(libc_a-mallocr.o)
                0x20201a40                __malloc_sbrk_start
 .bss.__malloc_free_list
                0x20201a44        0x4 D:/Program Files/STM32CubeCLT_1.21.0/GNU-tools-for-STM32/bin/../lib/gcc/arm-none-eabi/14.3.1/../../../../arm-none-eabi/lib/thumb/v6-m/nofp\libg_nano.a(libc_a-mallocr.o)
                0x20201a44                __malloc_free_list
 .bss.heap_end.0
                0x20201a48        0x4 D:/Program Files/STM32CubeCLT_1.21.0/GNU-tools-for-STM32/bin/../lib/gcc/arm-none-eabi/14.3.1/../../../../arm-none-eabi/lib/thumb/v6-m/nofp\libnosys.a(sbrk.o)
 *(COMMON)
                0x20201a50                        . = ALIGN (0x8)
 *fill*         0x20201a4c        0x4 
                0x20201a50                        __bss_end__ = .

.noinit         0x20201a50        0x0
 *(*.noinit*)
                0x20201a50                        . = ALIGN (0x8)

.heap           0x20201a50        0x0
                0x20201a50                        __heap_start__ = .
                0x20201a50                        end = __heap_start__
                0x20201a50                        _end = end
                0x20201a50                        __end = end
 *(.heap)
                0x20201a50                        __heap_end__ = .
                0x20201a50                        __HeapLimit = __heap_end__

.stack          0x20201a50        0x0
                0x20201a50                        _stack = .
 *(.stack)

.BCRConfig
 *(.BCRConfig)

.BSLConfig
 *(.BSLConfig)
                0x20208000                        __StackTop = (ORIGIN (REGION_STACK) + LENGTH (REGION_STACK))
                [!provide]                        PROVIDE (__stack = __StackTop)
LOAD CMakeFiles/MSPM0G3507_BASIC.elf.dir/empty.c.obj
LOAD CMakeFiles/MSPM0G3507_BASIC.elf.dir/app/syscalls_stub.c.obj
LOAD CMakeFiles/MSPM0G3507_BASIC.elf.dir/syscfg/ti_msp_dl_config.c.obj
LOAD CMakeFiles/MSPM0G3507_BASIC.elf.dir/D_/tools/ti/mspm0_sdk_2_10_00_04/source/ti/devices/msp/m0p/startup_system_files/gcc/startup_mspm0g350x_gcc.c.obj
LOAD CMakeFiles/MSPM0G3507_BASIC.elf.dir/D_/tools/ti/mspm0_sdk_2_10_00_04/kernel/freertos/Source/croutine.c.obj
LOAD CMakeFiles/MSPM0G3507_BASIC.elf.dir/D_/tools/ti/mspm0_sdk_2_10_00_04/kernel/freertos/Source/event_groups.c.obj
LOAD CMakeFiles/MSPM0G3507_BASIC.elf.dir/D_/tools/ti/mspm0_sdk_2_10_00_04/kernel/freertos/Source/list.c.obj
LOAD CMakeFiles/MSPM0G3507_BASIC.elf.dir/D_/tools/ti/mspm0_sdk_2_10_00_04/kernel/freertos/Source/queue.c.obj
LOAD CMakeFiles/MSPM0G3507_BASIC.elf.dir/D_/tools/ti/mspm0_sdk_2_10_00_04/kernel/freertos/Source/stream_buffer.c.obj
LOAD CMakeFiles/MSPM0G3507_BASIC.elf.dir/D_/tools/ti/mspm0_sdk_2_10_00_04/kernel/freertos/Source/tasks.c.obj
LOAD CMakeFiles/MSPM0G3507_BASIC.elf.dir/D_/tools/ti/mspm0_sdk_2_10_00_04/kernel/freertos/Source/timers.c.obj
LOAD CMakeFiles/MSPM0G3507_BASIC.elf.dir/D_/tools/ti/mspm0_sdk_2_10_00_04/kernel/freertos/Source/portable/MemMang/heap_4.c.obj
LOAD CMakeFiles/MSPM0G3507_BASIC.elf.dir/D_/tools/ti/mspm0_sdk_2_10_00_04/kernel/freertos/Source/portable/GCC/ARM_CM0/port.c.obj
LOAD CMakeFiles/MSPM0G3507_BASIC.elf.dir/D_/tools/ti/mspm0_sdk_2_10_00_04/kernel/freertos/Source/portable/GCC/ARM_CM0/portasm.c.obj
LOAD CMakeFiles/MSPM0G3507_BASIC.elf.dir/D_/tools/ti/mspm0_sdk_2_10_00_04/kernel/freertos/dpl/AppHooks_freertos.c.obj
LOAD CMakeFiles/MSPM0G3507_BASIC.elf.dir/app/freertos_hooks.c.obj
LOAD app/libapp.a
LOAD bsp/libbsp.a
LOAD D:/tools/ti/mspm0_sdk_2_10_00_04/source/ti/driverlib/lib/gcc/m0p/mspm0g1x0x_g3x0x/driverlib.a
START GROUP
LOAD D:/Program Files/STM32CubeCLT_1.21.0/GNU-tools-for-STM32/bin/../lib/gcc/arm-none-eabi/14.3.1/thumb/v6-m/nofp\libgcc.a
LOAD D:/Program Files/STM32CubeCLT_1.21.0/GNU-tools-for-STM32/bin/../lib/gcc/arm-none-eabi/14.3.1/../../../../arm-none-eabi/lib/thumb/v6-m/nofp\libg_nano.a
LOAD D:/Program Files/STM32CubeCLT_1.21.0/GNU-tools-for-STM32/bin/../lib/gcc/arm-none-eabi/14.3.1/../../../../arm-none-eabi/lib/thumb/v6-m/nofp\libc_nano.a
END GROUP
START GROUP
LOAD D:/Program Files/STM32CubeCLT_1.21.0/GNU-tools-for-STM32/bin/../lib/gcc/arm-none-eabi/14.3.1/thumb/v6-m/nofp\libgcc.a
LOAD D:/Program Files/STM32CubeCLT_1.21.0/GNU-tools-for-STM32/bin/../lib/gcc/arm-none-eabi/14.3.1/../../../../arm-none-eabi/lib/thumb/v6-m/nofp\libc_nano.a
LOAD D:/Program Files/STM32CubeCLT_1.21.0/GNU-tools-for-STM32/bin/../lib/gcc/arm-none-eabi/14.3.1/../../../../arm-none-eabi/lib/thumb/v6-m/nofp\libnosys.a
END GROUP
START GROUP
LOAD D:/Program Files/STM32CubeCLT_1.21.0/GNU-tools-for-STM32/bin/../lib/gcc/arm-none-eabi/14.3.1/thumb/v6-m/nofp\libgcc.a
LOAD D:/Program Files/STM32CubeCLT_1.21.0/GNU-tools-for-STM32/bin/../lib/gcc/arm-none-eabi/14.3.1/../../../../arm-none-eabi/lib/thumb/v6-m/nofp\libc_nano.a
LOAD D:/Program Files/STM32CubeCLT_1.21.0/GNU-tools-for-STM32/bin/../lib/gcc/arm-none-eabi/14.3.1/../../../../arm-none-eabi/lib/thumb/v6-m/nofp\libnosys.a
END GROUP
LOAD D:/tools/ti/mspm0_sdk_2_10_00_04/source\third_party/CMSIS/DSP/lib/gcc/m0p/arm_cortexM0l_math.a
LOAD D:/tools/ti/mspm0_sdk_2_10_00_04/source\ti/driverlib/lib/gcc/m0p/mspm0g1x0x_g3x0x/driverlib.a
OUTPUT(MSPM0G3507_BASIC.elf elf32-littlearm)
LOAD linker stubs

.debug_info     0x00000000    0x64522
 .debug_info    0x00000000     0x555a CMakeFiles/MSPM0G3507_BASIC.elf.dir/empty.c.obj
 .debug_info    0x0000555a      0x426 CMakeFiles/MSPM0G3507_BASIC.elf.dir/app/syscalls_stub.c.obj
 .debug_info    0x00005980     0x8bb9 CMakeFiles/MSPM0G3507_BASIC.elf.dir/syscfg/ti_msp_dl_config.c.obj
 .debug_info    0x0000e539      0x1e5 CMakeFiles/MSPM0G3507_BASIC.elf.dir/D_/tools/ti/mspm0_sdk_2_10_00_04/source/ti/devices/msp/m0p/startup_system_files/gcc/startup_mspm0g350x_gcc.c.obj
 .debug_info    0x0000e71e       0x6c CMakeFiles/MSPM0G3507_BASIC.elf.dir/D_/tools/ti/mspm0_sdk_2_10_00_04/kernel/freertos/Source/croutine.c.obj
 .debug_info    0x0000e78a      0xde2 CMakeFiles/MSPM0G3507_BASIC.elf.dir/D_/tools/ti/mspm0_sdk_2_10_00_04/kernel/freertos/Source/event_groups.c.obj
 .debug_info    0x0000f56c      0x29e CMakeFiles/MSPM0G3507_BASIC.elf.dir/D_/tools/ti/mspm0_sdk_2_10_00_04/kernel/freertos/Source/list.c.obj
 .debug_info    0x0000f80a     0x23e3 CMakeFiles/MSPM0G3507_BASIC.elf.dir/D_/tools/ti/mspm0_sdk_2_10_00_04/kernel/freertos/Source/queue.c.obj
 .debug_info    0x00011bed     0x1cc7 CMakeFiles/MSPM0G3507_BASIC.elf.dir/D_/tools/ti/mspm0_sdk_2_10_00_04/kernel/freertos/Source/stream_buffer.c.obj
 .debug_info    0x000138b4     0x41a5 CMakeFiles/MSPM0G3507_BASIC.elf.dir/D_/tools/ti/mspm0_sdk_2_10_00_04/kernel/freertos/Source/tasks.c.obj
 .debug_info    0x00017a59     0x20b6 CMakeFiles/MSPM0G3507_BASIC.elf.dir/D_/tools/ti/mspm0_sdk_2_10_00_04/kernel/freertos/Source/timers.c.obj
 .debug_info    0x00019b0f      0x5c0 CMakeFiles/MSPM0G3507_BASIC.elf.dir/D_/tools/ti/mspm0_sdk_2_10_00_04/kernel/freertos/Source/portable/MemMang/heap_4.c.obj
 .debug_info    0x0001a0cf      0x4c3 CMakeFiles/MSPM0G3507_BASIC.elf.dir/D_/tools/ti/mspm0_sdk_2_10_00_04/kernel/freertos/Source/portable/GCC/ARM_CM0/port.c.obj
 .debug_info    0x0001a592      0x14f CMakeFiles/MSPM0G3507_BASIC.elf.dir/D_/tools/ti/mspm0_sdk_2_10_00_04/kernel/freertos/Source/portable/GCC/ARM_CM0/portasm.c.obj
 .debug_info    0x0001a6e1       0xba CMakeFiles/MSPM0G3507_BASIC.elf.dir/D_/tools/ti/mspm0_sdk_2_10_00_04/kernel/freertos/dpl/AppHooks_freertos.c.obj
 .debug_info    0x0001a79b      0x9cf CMakeFiles/MSPM0G3507_BASIC.elf.dir/app/freertos_hooks.c.obj
 .debug_info    0x0001b16a     0x5ad1 app/libapp.a(robot.c.obj)
 .debug_info    0x00020c3b     0x5559 bsp/libbsp.a(bsp_init.c.obj)
 .debug_info    0x00026194     0x58dc bsp/libbsp.a(bsp_dwt.c.obj)
 .debug_info    0x0002ba70      0x2d2 bsp/libbsp.a(bsp_log.c.obj)
 .debug_info    0x0002bd42     0x6127 D:/tools/ti/mspm0_sdk_2_10_00_04/source/ti/driverlib/lib/gcc/m0p/mspm0g1x0x_g3x0x/driverlib.a(dl_adc12.o)
 .debug_info    0x00031e69     0x561b D:/tools/ti/mspm0_sdk_2_10_00_04/source/ti/driverlib/lib/gcc/m0p/mspm0g1x0x_g3x0x/driverlib.a(dl_common.o)
 .debug_info    0x00037484     0x5f7e D:/tools/ti/mspm0_sdk_2_10_00_04/source/ti/driverlib/lib/gcc/m0p/mspm0g1x0x_g3x0x/driverlib.a(dl_i2c.o)
 .debug_info    0x0003d402     0x668b D:/tools/ti/mspm0_sdk_2_10_00_04/source/ti/driverlib/lib/gcc/m0p/mspm0g1x0x_g3x0x/driverlib.a(dl_spi.o)
 .debug_info    0x00043a8d     0x9259 D:/tools/ti/mspm0_sdk_2_10_00_04/source/ti/driverlib/lib/gcc/m0p/mspm0g1x0x_g3x0x/driverlib.a(dl_timer.o)
 .debug_info    0x0004cce6     0x670b D:/tools/ti/mspm0_sdk_2_10_00_04/source/ti/driverlib/lib/gcc/m0p/mspm0g1x0x_g3x0x/driverlib.a(dl_uart.o)
 .debug_info    0x000533f1      0xfaa D:/Program Files/STM32CubeCLT_1.21.0/GNU-tools-for-STM32/bin/../lib/gcc/arm-none-eabi/14.3.1/../../../../arm-none-eabi/lib/thumb/v6-m/nofp\libg_nano.a(libc_a-findfp.o)
 .debug_info    0x0005439b      0x7d7 D:/Program Files/STM32CubeCLT_1.21.0/GNU-tools-for-STM32/bin/../lib/gcc/arm-none-eabi/14.3.1/../../../../arm-none-eabi/lib/thumb/v6-m/nofp\libg_nano.a(libc_a-fwalk.o)
 .debug_info    0x00054b72      0x885 D:/Program Files/STM32CubeCLT_1.21.0/GNU-tools-for-STM32/bin/../lib/gcc/arm-none-eabi/14.3.1/../../../../arm-none-eabi/lib/thumb/v6-m/nofp\libg_nano.a(libc_a-sprintf.o)
 .debug_info    0x000553f7      0xa82 D:/Program Files/STM32CubeCLT_1.21.0/GNU-tools-for-STM32/bin/../lib/gcc/arm-none-eabi/14.3.1/../../../../arm-none-eabi/lib/thumb/v6-m/nofp\libg_nano.a(libc_a-stdio.o)
 .debug_info    0x00055e79      0x82f D:/Program Files/STM32CubeCLT_1.21.0/GNU-tools-for-STM32/bin/../lib/gcc/arm-none-eabi/14.3.1/../../../../arm-none-eabi/lib/thumb/v6-m/nofp\libg_nano.a(libc_a-vprintf.o)
 .debug_info    0x000566a8       0xe0 D:/Program Files/STM32CubeCLT_1.21.0/GNU-tools-for-STM32/bin/../lib/gcc/arm-none-eabi/14.3.1/../../../../arm-none-eabi/lib/thumb/v6-m/nofp\libg_nano.a(libc_a-memset.o)
 .debug_info    0x00056788      0x75d D:/Program Files/STM32CubeCLT_1.21.0/GNU-tools-for-STM32/bin/../lib/gcc/arm-none-eabi/14.3.1/../../../../arm-none-eabi/lib/thumb/v6-m/nofp\libg_nano.a(libc_a-closer.o)
 .debug_info    0x00056ee5      0x89a D:/Program Files/STM32CubeCLT_1.21.0/GNU-tools-for-STM32/bin/../lib/gcc/arm-none-eabi/14.3.1/../../../../arm-none-eabi/lib/thumb/v6-m/nofp\libg_nano.a(libc_a-reent.o)
 .debug_info    0x0005777f      0x715 D:/Program Files/STM32CubeCLT_1.21.0/GNU-tools-for-STM32/bin/../lib/gcc/arm-none-eabi/14.3.1/../../../../arm-none-eabi/lib/thumb/v6-m/nofp\libg_nano.a(libc_a-impure.o)
 .debug_info    0x00057e94      0x7a8 D:/Program Files/STM32CubeCLT_1.21.0/GNU-tools-for-STM32/bin/../lib/gcc/arm-none-eabi/14.3.1/../../../../arm-none-eabi/lib/thumb/v6-m/nofp\libg_nano.a(libc_a-lseekr.o)
 .debug_info    0x0005863c      0x7bf D:/Program Files/STM32CubeCLT_1.21.0/GNU-tools-for-STM32/bin/../lib/gcc/arm-none-eabi/14.3.1/../../../../arm-none-eabi/lib/thumb/v6-m/nofp\libg_nano.a(libc_a-readr.o)
 .debug_info    0x00058dfb      0x7c5 D:/Program Files/STM32CubeCLT_1.21.0/GNU-tools-for-STM32/bin/../lib/gcc/arm-none-eabi/14.3.1/../../../../arm-none-eabi/lib/thumb/v6-m/nofp\libg_nano.a(libc_a-writer.o)
 .debug_info    0x000595c0      0x6fb D:/Program Files/STM32CubeCLT_1.21.0/GNU-tools-for-STM32/bin/../lib/gcc/arm-none-eabi/14.3.1/../../../../arm-none-eabi/lib/thumb/v6-m/nofp\libg_nano.a(libc_a-errno.o)
 .debug_info    0x00059cbb      0x10b D:/Program Files/STM32CubeCLT_1.21.0/GNU-tools-for-STM32/bin/../lib/gcc/arm-none-eabi/14.3.1/../../../../arm-none-eabi/lib/thumb/v6-m/nofp\libg_nano.a(libc_a-init.o)
 .debug_info    0x00059dc6      0x218 D:/Program Files/STM32CubeCLT_1.21.0/GNU-tools-for-STM32/bin/../lib/gcc/arm-none-eabi/14.3.1/../../../../arm-none-eabi/lib/thumb/v6-m/nofp\libg_nano.a(libc_a-lock.o)
 .debug_info    0x00059fde      0x11b D:/Program Files/STM32CubeCLT_1.21.0/GNU-tools-for-STM32/bin/../lib/gcc/arm-none-eabi/14.3.1/../../../../arm-none-eabi/lib/thumb/v6-m/nofp\libg_nano.a(libc_a-memcpy-stub.o)
 .debug_info    0x0005a0f9      0x84a D:/Program Files/STM32CubeCLT_1.21.0/GNU-tools-for-STM32/bin/../lib/gcc/arm-none-eabi/14.3.1/../../../../arm-none-eabi/lib/thumb/v6-m/nofp\libg_nano.a(libc_a-freer.o)
 .debug_info    0x0005a943      0x9c8 D:/Program Files/STM32CubeCLT_1.21.0/GNU-tools-for-STM32/bin/../lib/gcc/arm-none-eabi/14.3.1/../../../../arm-none-eabi/lib/thumb/v6-m/nofp\libg_nano.a(libc_a-mallocr.o)
 .debug_info    0x0005b30b      0x76b D:/Program Files/STM32CubeCLT_1.21.0/GNU-tools-for-STM32/bin/../lib/gcc/arm-none-eabi/14.3.1/../../../../arm-none-eabi/lib/thumb/v6-m/nofp\libg_nano.a(libc_a-mlock.o)
 .debug_info    0x0005ba76     0x10d2 D:/Program Files/STM32CubeCLT_1.21.0/GNU-tools-for-STM32/bin/../lib/gcc/arm-none-eabi/14.3.1/../../../../arm-none-eabi/lib/thumb/v6-m/nofp\libg_nano.a(libc_a-nano-svfprintf.o)
 .debug_info    0x0005cb48     0x10a9 D:/Program Files/STM32CubeCLT_1.21.0/GNU-tools-for-STM32/bin/../lib/gcc/arm-none-eabi/14.3.1/../../../../arm-none-eabi/lib/thumb/v6-m/nofp\libg_nano.a(libc_a-nano-vfprintf.o)
 .debug_info    0x0005dbf1      0xe0a D:/Program Files/STM32CubeCLT_1.21.0/GNU-tools-for-STM32/bin/../lib/gcc/arm-none-eabi/14.3.1/../../../../arm-none-eabi/lib/thumb/v6-m/nofp\libg_nano.a(libc_a-nano-vfprintf_i.o)
 .debug_info    0x0005e9fb      0x9f3 D:/Program Files/STM32CubeCLT_1.21.0/GNU-tools-for-STM32/bin/../lib/gcc/arm-none-eabi/14.3.1/../../../../arm-none-eabi/lib/thumb/v6-m/nofp\libg_nano.a(libc_a-fflush.o)
 .debug_info    0x0005f3ee      0xb37 D:/Program Files/STM32CubeCLT_1.21.0/GNU-tools-for-STM32/bin/../lib/gcc/arm-none-eabi/14.3.1/../../../../arm-none-eabi/lib/thumb/v6-m/nofp\libg_nano.a(libc_a-fvwrite.o)
 .debug_info    0x0005ff25      0x874 D:/Program Files/STM32CubeCLT_1.21.0/GNU-tools-for-STM32/bin/../lib/gcc/arm-none-eabi/14.3.1/../../../../arm-none-eabi/lib/thumb/v6-m/nofp\libg_nano.a(libc_a-wbuf.o)
 .debug_info    0x00060799      0x7bb D:/Program Files/STM32CubeCLT_1.21.0/GNU-tools-for-STM32/bin/../lib/gcc/arm-none-eabi/14.3.1/../../../../arm-none-eabi/lib/thumb/v6-m/nofp\libg_nano.a(libc_a-wsetup.o)
 .debug_info    0x00060f54      0x109 D:/Program Files/STM32CubeCLT_1.21.0/GNU-tools-for-STM32/bin/../lib/gcc/arm-none-eabi/14.3.1/../../../../arm-none-eabi/lib/thumb/v6-m/nofp\libg_nano.a(libc_a-memmove.o)
 .debug_info    0x0006105d      0x782 D:/Program Files/STM32CubeCLT_1.21.0/GNU-tools-for-STM32/bin/../lib/gcc/arm-none-eabi/14.3.1/../../../../arm-none-eabi/lib/thumb/v6-m/nofp\libg_nano.a(libc_a-sbrkr.o)
 .debug_info    0x000617df      0x110 D:/Program Files/STM32CubeCLT_1.21.0/GNU-tools-for-STM32/bin/../lib/gcc/arm-none-eabi/14.3.1/../../../../arm-none-eabi/lib/thumb/v6-m/nofp\libg_nano.a(libc_a-memchr-stub.o)
 .debug_info    0x000618ef      0x8ac D:/Program Files/STM32CubeCLT_1.21.0/GNU-tools-for-STM32/bin/../lib/gcc/arm-none-eabi/14.3.1/../../../../arm-none-eabi/lib/thumb/v6-m/nofp\libg_nano.a(libc_a-reallocr.o)
 .debug_info    0x0006219b      0xb15 D:/Program Files/STM32CubeCLT_1.21.0/GNU-tools-for-STM32/bin/../lib/gcc/arm-none-eabi/14.3.1/../../../../arm-none-eabi/lib/thumb/v6-m/nofp\libg_nano.a(libc_a-makebuf.o)
 .debug_info    0x00062cb0      0x981 D:/Program Files/STM32CubeCLT_1.21.0/GNU-tools-for-STM32/bin/../lib/gcc/arm-none-eabi/14.3.1/../../../../arm-none-eabi/lib/thumb/v6-m/nofp\libg_nano.a(libc_a-fstatr.o)
 .debug_info    0x00063631      0x75d D:/Program Files/STM32CubeCLT_1.21.0/GNU-tools-for-STM32/bin/../lib/gcc/arm-none-eabi/14.3.1/../../../../arm-none-eabi/lib/thumb/v6-m/nofp\libg_nano.a(libc_a-isattyr.o)
 .debug_info    0x00063d8e      0x794 D:/Program Files/STM32CubeCLT_1.21.0/GNU-tools-for-STM32/bin/../lib/gcc/arm-none-eabi/14.3.1/../../../../arm-none-eabi/lib/thumb/v6-m/nofp\libg_nano.a(libc_a-msizer.o)

.debug_abbrev   0x00000000     0x80c0
 .debug_abbrev  0x00000000      0x19f CMakeFiles/MSPM0G3507_BASIC.elf.dir/empty.c.obj
 .debug_abbrev  0x0000019f      0x112 CMakeFiles/MSPM0G3507_BASIC.elf.dir/app/syscalls_stub.c.obj
 .debug_abbrev  0x000002b1      0x420 CMakeFiles/MSPM0G3507_BASIC.elf.dir/syscfg/ti_msp_dl_config.c.obj
 .debug_abbrev  0x000006d1      0x140 CMakeFiles/MSPM0G3507_BASIC.elf.dir/D_/tools/ti/mspm0_sdk_2_10_00_04/source/ti/devices/msp/m0p/startup_system_files/gcc/startup_mspm0g350x_gcc.c.obj
 .debug_abbrev  0x00000811       0x26 CMakeFiles/MSPM0G3507_BASIC.elf.dir/D_/tools/ti/mspm0_sdk_2_10_00_04/kernel/freertos/Source/croutine.c.obj
 .debug_abbrev  0x00000837      0x321 CMakeFiles/MSPM0G3507_BASIC.elf.dir/D_/tools/ti/mspm0_sdk_2_10_00_04/kernel/freertos/Source/event_groups.c.obj
 .debug_abbrev  0x00000b58      0x10e CMakeFiles/MSPM0G3507_BASIC.elf.dir/D_/tools/ti/mspm0_sdk_2_10_00_04/kernel/freertos/Source/list.c.obj
 .debug_abbrev  0x00000c66      0x3f5 CMakeFiles/MSPM0G3507_BASIC.elf.dir/D_/tools/ti/mspm0_sdk_2_10_00_04/kernel/freertos/Source/queue.c.obj
 .debug_abbrev  0x0000105b      0x392 CMakeFiles/MSPM0G3507_BASIC.elf.dir/D_/tools/ti/mspm0_sdk_2_10_00_04/kernel/freertos/Source/stream_buffer.c.obj
 .debug_abbrev  0x000013ed      0x599 CMakeFiles/MSPM0G3507_BASIC.elf.dir/D_/tools/ti/mspm0_sdk_2_10_00_04/kernel/freertos/Source/tasks.c.obj
 .debug_abbrev  0x00001986      0x466 CMakeFiles/MSPM0G3507_BASIC.elf.dir/D_/tools/ti/mspm0_sdk_2_10_00_04/kernel/freertos/Source/timers.c.obj
 .debug_abbrev  0x00001dec      0x2be CMakeFiles/MSPM0G3507_BASIC.elf.dir/D_/tools/ti/mspm0_sdk_2_10_00_04/kernel/freertos/Source/portable/MemMang/heap_4.c.obj
 .debug_abbrev  0x000020aa      0x211 CMakeFiles/MSPM0G3507_BASIC.elf.dir/D_/tools/ti/mspm0_sdk_2_10_00_04/kernel/freertos/Source/portable/GCC/ARM_CM0/port.c.obj
 .debug_abbrev  0x000022bb       0xb6 CMakeFiles/MSPM0G3507_BASIC.elf.dir/D_/tools/ti/mspm0_sdk_2_10_00_04/kernel/freertos/Source/portable/GCC/ARM_CM0/portasm.c.obj
 .debug_abbrev  0x00002371       0x78 CMakeFiles/MSPM0G3507_BASIC.elf.dir/D_/tools/ti/mspm0_sdk_2_10_00_04/kernel/freertos/dpl/AppHooks_freertos.c.obj
 .debug_abbrev  0x000023e9      0x1c4 CMakeFiles/MSPM0G3507_BASIC.elf.dir/app/freertos_hooks.c.obj
 .debug_abbrev  0x000025ad      0x3d3 app/libapp.a(robot.c.obj)
 .debug_abbrev  0x00002980      0x1a7 bsp/libbsp.a(bsp_init.c.obj)
 .debug_abbrev  0x00002b27      0x283 bsp/libbsp.a(bsp_dwt.c.obj)
 .debug_abbrev  0x00002daa      0x1bf bsp/libbsp.a(bsp_log.c.obj)
 .debug_abbrev  0x00002f69      0x2ef D:/tools/ti/mspm0_sdk_2_10_00_04/source/ti/driverlib/lib/gcc/m0p/mspm0g1x0x_g3x0x/driverlib.a(dl_adc12.o)
 .debug_abbrev  0x00003258      0x166 D:/tools/ti/mspm0_sdk_2_10_00_04/source/ti/driverlib/lib/gcc/m0p/mspm0g1x0x_g3x0x/driverlib.a(dl_common.o)
 .debug_abbrev  0x000033be      0x2f1 D:/tools/ti/mspm0_sdk_2_10_00_04/source/ti/driverlib/lib/gcc/m0p/mspm0g1x0x_g3x0x/driverlib.a(dl_i2c.o)
 .debug_abbrev  0x000036af      0x39f D:/tools/ti/mspm0_sdk_2_10_00_04/source/ti/driverlib/lib/gcc/m0p/mspm0g1x0x_g3x0x/driverlib.a(dl_spi.o)
 .debug_abbrev  0x00003a4e      0x3dd D:/tools/ti/mspm0_sdk_2_10_00_04/source/ti/driverlib/lib/gcc/m0p/mspm0g1x0x_g3x0x/driverlib.a(dl_timer.o)
 .debug_abbrev  0x00003e2b      0x3a0 D:/tools/ti/mspm0_sdk_2_10_00_04/source/ti/driverlib/lib/gcc/m0p/mspm0g1x0x_g3x0x/driverlib.a(dl_uart.o)
 .debug_abbrev  0x000041cb      0x405 D:/Program Files/STM32CubeCLT_1.21.0/GNU-tools-for-STM32/bin/../lib/gcc/arm-none-eabi/14.3.1/../../../../arm-none-eabi/lib/thumb/v6-m/nofp\libg_nano.a(libc_a-findfp.o)
 .debug_abbrev  0x000045d0      0x19e D:/Program Files/STM32CubeCLT_1.21.0/GNU-tools-for-STM32/bin/../lib/gcc/arm-none-eabi/14.3.1/../../../../arm-none-eabi/lib/thumb/v6-m/nofp\libg_nano.a(libc_a-fwalk.o)
 .debug_abbrev  0x0000476e      0x21c D:/Program Files/STM32CubeCLT_1.21.0/GNU-tools-for-STM32/bin/../lib/gcc/arm-none-eabi/14.3.1/../../../../arm-none-eabi/lib/thumb/v6-m/nofp\libg_nano.a(libc_a-sprintf.o)
 .debug_abbrev  0x0000498a      0x206 D:/Program Files/STM32CubeCLT_1.21.0/GNU-tools-for-STM32/bin/../lib/gcc/arm-none-eabi/14.3.1/../../../../arm-none-eabi/lib/thumb/v6-m/nofp\libg_nano.a(libc_a-stdio.o)
 .debug_abbrev  0x00004b90      0x1f0 D:/Program Files/STM32CubeCLT_1.21.0/GNU-tools-for-STM32/bin/../lib/gcc/arm-none-eabi/14.3.1/../../../../arm-none-eabi/lib/thumb/v6-m/nofp\libg_nano.a(libc_a-vprintf.o)
 .debug_abbrev  0x00004d80       0x9e D:/Program Files/STM32CubeCLT_1.21.0/GNU-tools-for-STM32/bin/../lib/gcc/arm-none-eabi/14.3.1/../../../../arm-none-eabi/lib/thumb/v6-m/nofp\libg_nano.a(libc_a-memset.o)
 .debug_abbrev  0x00004e1e      0x1b0 D:/Program Files/STM32CubeCLT_1.21.0/GNU-tools-for-STM32/bin/../lib/gcc/arm-none-eabi/14.3.1/../../../../arm-none-eabi/lib/thumb/v6-m/nofp\libg_nano.a(libc_a-closer.o)
 .debug_abbrev  0x00004fce      0x1f4 D:/Program Files/STM32CubeCLT_1.21.0/GNU-tools-for-STM32/bin/../lib/gcc/arm-none-eabi/14.3.1/../../../../arm-none-eabi/lib/thumb/v6-m/nofp\libg_nano.a(libc_a-reent.o)
 .debug_abbrev  0x000051c2      0x149 D:/Program Files/STM32CubeCLT_1.21.0/GNU-tools-for-STM32/bin/../lib/gcc/arm-none-eabi/14.3.1/../../../../arm-none-eabi/lib/thumb/v6-m/nofp\libg_nano.a(libc_a-impure.o)
 .debug_abbrev  0x0000530b      0x1c4 D:/Program Files/STM32CubeCLT_1.21.0/GNU-tools-for-STM32/bin/../lib/gcc/arm-none-eabi/14.3.1/../../../../arm-none-eabi/lib/thumb/v6-m/nofp\libg_nano.a(libc_a-lseekr.o)
 .debug_abbrev  0x000054cf      0x1b0 D:/Program Files/STM32CubeCLT_1.21.0/GNU-tools-for-STM32/bin/../lib/gcc/arm-none-eabi/14.3.1/../../../../arm-none-eabi/lib/thumb/v6-m/nofp\libg_nano.a(libc_a-readr.o)
 .debug_abbrev  0x0000567f      0x1b5 D:/Program Files/STM32CubeCLT_1.21.0/GNU-tools-for-STM32/bin/../lib/gcc/arm-none-eabi/14.3.1/../../../../arm-none-eabi/lib/thumb/v6-m/nofp\libg_nano.a(libc_a-writer.o)
 .debug_abbrev  0x00005834      0x15e D:/Program Files/STM32CubeCLT_1.21.0/GNU-tools-for-STM32/bin/../lib/gcc/arm-none-eabi/14.3.1/../../../../arm-none-eabi/lib/thumb/v6-m/nofp\libg_nano.a(libc_a-errno.o)
 .debug_abbrev  0x00005992       0xc9 D:/Program Files/STM32CubeCLT_1.21.0/GNU-tools-for-STM32/bin/../lib/gcc/arm-none-eabi/14.3.1/../../../../arm-none-eabi/lib/thumb/v6-m/nofp\libg_nano.a(libc_a-init.o)
 .debug_abbrev  0x00005a5b      0x115 D:/Program Files/STM32CubeCLT_1.21.0/GNU-tools-for-STM32/bin/../lib/gcc/arm-none-eabi/14.3.1/../../../../arm-none-eabi/lib/thumb/v6-m/nofp\libg_nano.a(libc_a-lock.o)
 .debug_abbrev  0x00005b70       0xc1 D:/Program Files/STM32CubeCLT_1.21.0/GNU-tools-for-STM32/bin/../lib/gcc/arm-none-eabi/14.3.1/../../../../arm-none-eabi/lib/thumb/v6-m/nofp\libg_nano.a(libc_a-memcpy-stub.o)
 .debug_abbrev  0x00005c31      0x233 D:/Program Files/STM32CubeCLT_1.21.0/GNU-tools-for-STM32/bin/../lib/gcc/arm-none-eabi/14.3.1/../../../../arm-none-eabi/lib/thumb/v6-m/nofp\libg_nano.a(libc_a-freer.o)
 .debug_abbrev  0x00005e64      0x241 D:/Program Files/STM32CubeCLT_1.21.0/GNU-tools-for-STM32/bin/../lib/gcc/arm-none-eabi/14.3.1/../../../../arm-none-eabi/lib/thumb/v6-m/nofp\libg_nano.a(libc_a-mallocr.o)
 .debug_abbrev  0x000060a5      0x1bc D:/Program Files/STM32CubeCLT_1.21.0/GNU-tools-for-STM32/bin/../lib/gcc/arm-none-eabi/14.3.1/../../../../arm-none-eabi/lib/thumb/v6-m/nofp\libg_nano.a(libc_a-mlock.o)
 .debug_abbrev  0x00006261      0x31e D:/Program Files/STM32CubeCLT_1.21.0/GNU-tools-for-STM32/bin/../lib/gcc/arm-none-eabi/14.3.1/../../../../arm-none-eabi/lib/thumb/v6-m/nofp\libg_nano.a(libc_a-nano-svfprintf.o)
 .debug_abbrev  0x0000657f      0x2fd D:/Program Files/STM32CubeCLT_1.21.0/GNU-tools-for-STM32/bin/../lib/gcc/arm-none-eabi/14.3.1/../../../../arm-none-eabi/lib/thumb/v6-m/nofp\libg_nano.a(libc_a-nano-vfprintf.o)
 .debug_abbrev  0x0000687c      0x29f D:/Program Files/STM32CubeCLT_1.21.0/GNU-tools-for-STM32/bin/../lib/gcc/arm-none-eabi/14.3.1/../../../../arm-none-eabi/lib/thumb/v6-m/nofp\libg_nano.a(libc_a-nano-vfprintf_i.o)
 .debug_abbrev  0x00006b1b      0x298 D:/Program Files/STM32CubeCLT_1.21.0/GNU-tools-for-STM32/bin/../lib/gcc/arm-none-eabi/14.3.1/../../../../arm-none-eabi/lib/thumb/v6-m/nofp\libg_nano.a(libc_a-fflush.o)
 .debug_abbrev  0x00006db3      0x231 D:/Program Files/STM32CubeCLT_1.21.0/GNU-tools-for-STM32/bin/../lib/gcc/arm-none-eabi/14.3.1/../../../../arm-none-eabi/lib/thumb/v6-m/nofp\libg_nano.a(libc_a-fvwrite.o)
 .debug_abbrev  0x00006fe4      0x221 D:/Program Files/STM32CubeCLT_1.21.0/GNU-tools-for-STM32/bin/../lib/gcc/arm-none-eabi/14.3.1/../../../../arm-none-eabi/lib/thumb/v6-m/nofp\libg_nano.a(libc_a-wbuf.o)
 .debug_abbrev  0x00007205      0x1e2 D:/Program Files/STM32CubeCLT_1.21.0/GNU-tools-for-STM32/bin/../lib/gcc/arm-none-eabi/14.3.1/../../../../arm-none-eabi/lib/thumb/v6-m/nofp\libg_nano.a(libc_a-wsetup.o)
 .debug_abbrev  0x000073e7       0xac D:/Program Files/STM32CubeCLT_1.21.0/GNU-tools-for-STM32/bin/../lib/gcc/arm-none-eabi/14.3.1/../../../../arm-none-eabi/lib/thumb/v6-m/nofp\libg_nano.a(libc_a-memmove.o)
 .debug_abbrev  0x00007493      0x1da D:/Program Files/STM32CubeCLT_1.21.0/GNU-tools-for-STM32/bin/../lib/gcc/arm-none-eabi/14.3.1/../../../../arm-none-eabi/lib/thumb/v6-m/nofp\libg_nano.a(libc_a-sbrkr.o)
 .debug_abbrev  0x0000766d       0xb1 D:/Program Files/STM32CubeCLT_1.21.0/GNU-tools-for-STM32/bin/../lib/gcc/arm-none-eabi/14.3.1/../../../../arm-none-eabi/lib/thumb/v6-m/nofp\libg_nano.a(libc_a-memchr-stub.o)
 .debug_abbrev  0x0000771e      0x209 D:/Program Files/STM32CubeCLT_1.21.0/GNU-tools-for-STM32/bin/../lib/gcc/arm-none-eabi/14.3.1/../../../../arm-none-eabi/lib/thumb/v6-m/nofp\libg_nano.a(libc_a-reallocr.o)
 .debug_abbrev  0x00007927      0x290 D:/Program Files/STM32CubeCLT_1.21.0/GNU-tools-for-STM32/bin/../lib/gcc/arm-none-eabi/14.3.1/../../../../arm-none-eabi/lib/thumb/v6-m/nofp\libg_nano.a(libc_a-makebuf.o)
 .debug_abbrev  0x00007bb7      0x1c3 D:/Program Files/STM32CubeCLT_1.21.0/GNU-tools-for-STM32/bin/../lib/gcc/arm-none-eabi/14.3.1/../../../../arm-none-eabi/lib/thumb/v6-m/nofp\libg_nano.a(libc_a-fstatr.o)
 .debug_abbrev  0x00007d7a      0x1b0 D:/Program Files/STM32CubeCLT_1.21.0/GNU-tools-for-STM32/bin/../lib/gcc/arm-none-eabi/14.3.1/../../../../arm-none-eabi/lib/thumb/v6-m/nofp\libg_nano.a(libc_a-isattyr.o)
 .debug_abbrev  0x00007f2a      0x196 D:/Program Files/STM32CubeCLT_1.21.0/GNU-tools-for-STM32/bin/../lib/gcc/arm-none-eabi/14.3.1/../../../../arm-none-eabi/lib/thumb/v6-m/nofp\libg_nano.a(libc_a-msizer.o)

.debug_aranges  0x00000000     0x12c0
 .debug_aranges
                0x00000000       0x20 CMakeFiles/MSPM0G3507_BASIC.elf.dir/empty.c.obj
 .debug_aranges
                0x00000020       0x48 CMakeFiles/MSPM0G3507_BASIC.elf.dir/app/syscalls_stub.c.obj
 .debug_aranges
                0x00000068       0xa8 CMakeFiles/MSPM0G3507_BASIC.elf.dir/syscfg/ti_msp_dl_config.c.obj
 .debug_aranges
                0x00000110       0x30 CMakeFiles/MSPM0G3507_BASIC.elf.dir/D_/tools/ti/mspm0_sdk_2_10_00_04/source/ti/devices/msp/m0p/startup_system_files/gcc/startup_mspm0g350x_gcc.c.obj
 .debug_aranges
                0x00000140       0x18 CMakeFiles/MSPM0G3507_BASIC.elf.dir/D_/tools/ti/mspm0_sdk_2_10_00_04/kernel/freertos/Source/croutine.c.obj
 .debug_aranges
                0x00000158       0x88 CMakeFiles/MSPM0G3507_BASIC.elf.dir/D_/tools/ti/mspm0_sdk_2_10_00_04/kernel/freertos/Source/event_groups.c.obj
 .debug_aranges
                0x000001e0       0x40 CMakeFiles/MSPM0G3507_BASIC.elf.dir/D_/tools/ti/mspm0_sdk_2_10_00_04/kernel/freertos/Source/list.c.obj
 .debug_aranges
                0x00000220      0x118 CMakeFiles/MSPM0G3507_BASIC.elf.dir/D_/tools/ti/mspm0_sdk_2_10_00_04/kernel/freertos/Source/queue.c.obj
 .debug_aranges
                0x00000338       0xf0 CMakeFiles/MSPM0G3507_BASIC.elf.dir/D_/tools/ti/mspm0_sdk_2_10_00_04/kernel/freertos/Source/stream_buffer.c.obj
 .debug_aranges
                0x00000428      0x240 CMakeFiles/MSPM0G3507_BASIC.elf.dir/D_/tools/ti/mspm0_sdk_2_10_00_04/kernel/freertos/Source/tasks.c.obj
 .debug_aranges
                0x00000668       0xc8 CMakeFiles/MSPM0G3507_BASIC.elf.dir/D_/tools/ti/mspm0_sdk_2_10_00_04/kernel/freertos/Source/timers.c.obj
 .debug_aranges
                0x00000730       0x60 CMakeFiles/MSPM0G3507_BASIC.elf.dir/D_/tools/ti/mspm0_sdk_2_10_00_04/kernel/freertos/Source/portable/MemMang/heap_4.c.obj
 .debug_aranges
                0x00000790       0x78 CMakeFiles/MSPM0G3507_BASIC.elf.dir/D_/tools/ti/mspm0_sdk_2_10_00_04/kernel/freertos/Source/portable/GCC/ARM_CM0/port.c.obj
 .debug_aranges
                0x00000808       0x60 CMakeFiles/MSPM0G3507_BASIC.elf.dir/D_/tools/ti/mspm0_sdk_2_10_00_04/kernel/freertos/Source/portable/GCC/ARM_CM0/portasm.c.obj
 .debug_aranges
                0x00000868       0x20 CMakeFiles/MSPM0G3507_BASIC.elf.dir/D_/tools/ti/mspm0_sdk_2_10_00_04/kernel/freertos/dpl/AppHooks_freertos.c.obj
 .debug_aranges
                0x00000888       0x28 CMakeFiles/MSPM0G3507_BASIC.elf.dir/app/freertos_hooks.c.obj
 .debug_aranges
                0x000008b0       0x40 app/libapp.a(robot.c.obj)
 .debug_aranges
                0x000008f0       0x20 bsp/libbsp.a(bsp_init.c.obj)
 .debug_aranges
                0x00000910       0x58 bsp/libbsp.a(bsp_dwt.c.obj)
 .debug_aranges
                0x00000968       0x30 bsp/libbsp.a(bsp_log.c.obj)
 .debug_aranges
                0x00000998       0x28 D:/tools/ti/mspm0_sdk_2_10_00_04/source/ti/driverlib/lib/gcc/m0p/mspm0g1x0x_g3x0x/driverlib.a(dl_adc12.o)
 .debug_aranges
                0x000009c0       0x20 D:/tools/ti/mspm0_sdk_2_10_00_04/source/ti/driverlib/lib/gcc/m0p/mspm0g1x0x_g3x0x/driverlib.a(dl_common.o)
 .debug_aranges
                0x000009e0       0x78 D:/tools/ti/mspm0_sdk_2_10_00_04/source/ti/driverlib/lib/gcc/m0p/mspm0g1x0x_g3x0x/driverlib.a(dl_i2c.o)
 .debug_aranges
                0x00000a58       0xd0 D:/tools/ti/mspm0_sdk_2_10_00_04/source/ti/driverlib/lib/gcc/m0p/mspm0g1x0x_g3x0x/driverlib.a(dl_spi.o)
 .debug_aranges
                0x00000b28      0x190 D:/tools/ti/mspm0_sdk_2_10_00_04/source/ti/driverlib/lib/gcc/m0p/mspm0g1x0x_g3x0x/driverlib.a(dl_timer.o)
 .debug_aranges
                0x00000cb8       0x98 D:/tools/ti/mspm0_sdk_2_10_00_04/source/ti/driverlib/lib/gcc/m0p/mspm0g1x0x_g3x0x/driverlib.a(dl_uart.o)
 .debug_aranges
                0x00000d50       0x78 D:/Program Files/STM32CubeCLT_1.21.0/GNU-tools-for-STM32/bin/../lib/gcc/arm-none-eabi/14.3.1/../../../../arm-none-eabi/lib/thumb/v6-m/nofp\libg_nano.a(libc_a-findfp.o)
 .debug_aranges
                0x00000dc8       0x20 D:/Program Files/STM32CubeCLT_1.21.0/GNU-tools-for-STM32/bin/../lib/gcc/arm-none-eabi/14.3.1/../../../../arm-none-eabi/lib/thumb/v6-m/nofp\libg_nano.a(libc_a-fwalk.o)
 .debug_aranges
                0x00000de8       0x28 D:/Program Files/STM32CubeCLT_1.21.0/GNU-tools-for-STM32/bin/../lib/gcc/arm-none-eabi/14.3.1/../../../../arm-none-eabi/lib/thumb/v6-m/nofp\libg_nano.a(libc_a-sprintf.o)
 .debug_aranges
                0x00000e10       0x40 D:/Program Files/STM32CubeCLT_1.21.0/GNU-tools-for-STM32/bin/../lib/gcc/arm-none-eabi/14.3.1/../../../../arm-none-eabi/lib/thumb/v6-m/nofp\libg_nano.a(libc_a-stdio.o)
 .debug_aranges
                0x00000e50       0x28 D:/Program Files/STM32CubeCLT_1.21.0/GNU-tools-for-STM32/bin/../lib/gcc/arm-none-eabi/14.3.1/../../../../arm-none-eabi/lib/thumb/v6-m/nofp\libg_nano.a(libc_a-vprintf.o)
 .debug_aranges
                0x00000e78       0x20 D:/Program Files/STM32CubeCLT_1.21.0/GNU-tools-for-STM32/bin/../lib/gcc/arm-none-eabi/14.3.1/../../../../arm-none-eabi/lib/thumb/v6-m/nofp\libg_nano.a(libc_a-memset.o)
 .debug_aranges
                0x00000e98       0x20 D:/Program Files/STM32CubeCLT_1.21.0/GNU-tools-for-STM32/bin/../lib/gcc/arm-none-eabi/14.3.1/../../../../arm-none-eabi/lib/thumb/v6-m/nofp\libg_nano.a(libc_a-closer.o)
 .debug_aranges
                0x00000eb8       0x20 D:/Program Files/STM32CubeCLT_1.21.0/GNU-tools-for-STM32/bin/../lib/gcc/arm-none-eabi/14.3.1/../../../../arm-none-eabi/lib/thumb/v6-m/nofp\libg_nano.a(libc_a-reent.o)
 .debug_aranges
                0x00000ed8       0x18 D:/Program Files/STM32CubeCLT_1.21.0/GNU-tools-for-STM32/bin/../lib/gcc/arm-none-eabi/14.3.1/../../../../arm-none-eabi/lib/thumb/v6-m/nofp\libg_nano.a(libc_a-impure.o)
 .debug_aranges
                0x00000ef0       0x20 D:/Program Files/STM32CubeCLT_1.21.0/GNU-tools-for-STM32/bin/../lib/gcc/arm-none-eabi/14.3.1/../../../../arm-none-eabi/lib/thumb/v6-m/nofp\libg_nano.a(libc_a-lseekr.o)
 .debug_aranges
                0x00000f10       0x20 D:/Program Files/STM32CubeCLT_1.21.0/GNU-tools-for-STM32/bin/../lib/gcc/arm-none-eabi/14.3.1/../../../../arm-none-eabi/lib/thumb/v6-m/nofp\libg_nano.a(libc_a-readr.o)
 .debug_aranges
                0x00000f30       0x20 D:/Program Files/STM32CubeCLT_1.21.0/GNU-tools-for-STM32/bin/../lib/gcc/arm-none-eabi/14.3.1/../../../../arm-none-eabi/lib/thumb/v6-m/nofp\libg_nano.a(libc_a-writer.o)
 .debug_aranges
                0x00000f50       0x20 D:/Program Files/STM32CubeCLT_1.21.0/GNU-tools-for-STM32/bin/../lib/gcc/arm-none-eabi/14.3.1/../../../../arm-none-eabi/lib/thumb/v6-m/nofp\libg_nano.a(libc_a-errno.o)
 .debug_aranges
                0x00000f70       0x20 D:/Program Files/STM32CubeCLT_1.21.0/GNU-tools-for-STM32/bin/../lib/gcc/arm-none-eabi/14.3.1/../../../../arm-none-eabi/lib/thumb/v6-m/nofp\libg_nano.a(libc_a-init.o)
 .debug_aranges
                0x00000f90       0x68 D:/Program Files/STM32CubeCLT_1.21.0/GNU-tools-for-STM32/bin/../lib/gcc/arm-none-eabi/14.3.1/../../../../arm-none-eabi/lib/thumb/v6-m/nofp\libg_nano.a(libc_a-lock.o)
 .debug_aranges
                0x00000ff8       0x20 D:/Program Files/STM32CubeCLT_1.21.0/GNU-tools-for-STM32/bin/../lib/gcc/arm-none-eabi/14.3.1/../../../../arm-none-eabi/lib/thumb/v6-m/nofp\libg_nano.a(libc_a-memcpy-stub.o)
 .debug_aranges
                0x00001018       0x20 D:/Program Files/STM32CubeCLT_1.21.0/GNU-tools-for-STM32/bin/../lib/gcc/arm-none-eabi/14.3.1/../../../../arm-none-eabi/lib/thumb/v6-m/nofp\libg_nano.a(libc_a-freer.o)
 .debug_aranges
                0x00001038       0x28 D:/Program Files/STM32CubeCLT_1.21.0/GNU-tools-for-STM32/bin/../lib/gcc/arm-none-eabi/14.3.1/../../../../arm-none-eabi/lib/thumb/v6-m/nofp\libg_nano.a(libc_a-mallocr.o)
 .debug_aranges
                0x00001060       0x28 D:/Program Files/STM32CubeCLT_1.21.0/GNU-tools-for-STM32/bin/../lib/gcc/arm-none-eabi/14.3.1/../../../../arm-none-eabi/lib/thumb/v6-m/nofp\libg_nano.a(libc_a-mlock.o)
 .debug_aranges
                0x00001088       0x30 D:/Program Files/STM32CubeCLT_1.21.0/GNU-tools-for-STM32/bin/../lib/gcc/arm-none-eabi/14.3.1/../../../../arm-none-eabi/lib/thumb/v6-m/nofp\libg_nano.a(libc_a-nano-svfprintf.o)
 .debug_aranges
                0x000010b8       0x40 D:/Program Files/STM32CubeCLT_1.21.0/GNU-tools-for-STM32/bin/../lib/gcc/arm-none-eabi/14.3.1/../../../../arm-none-eabi/lib/thumb/v6-m/nofp\libg_nano.a(libc_a-nano-vfprintf.o)
 .debug_aranges
                0x000010f8       0x28 D:/Program Files/STM32CubeCLT_1.21.0/GNU-tools-for-STM32/bin/../lib/gcc/arm-none-eabi/14.3.1/../../../../arm-none-eabi/lib/thumb/v6-m/nofp\libg_nano.a(libc_a-nano-vfprintf_i.o)
 .debug_aranges
                0x00001120       0x30 D:/Program Files/STM32CubeCLT_1.21.0/GNU-tools-for-STM32/bin/../lib/gcc/arm-none-eabi/14.3.1/../../../../arm-none-eabi/lib/thumb/v6-m/nofp\libg_nano.a(libc_a-fflush.o)
 .debug_aranges
                0x00001150       0x20 D:/Program Files/STM32CubeCLT_1.21.0/GNU-tools-for-STM32/bin/../lib/gcc/arm-none-eabi/14.3.1/../../../../arm-none-eabi/lib/thumb/v6-m/nofp\libg_nano.a(libc_a-fvwrite.o)
 .debug_aranges
                0x00001170       0x28 D:/Program Files/STM32CubeCLT_1.21.0/GNU-tools-for-STM32/bin/../lib/gcc/arm-none-eabi/14.3.1/../../../../arm-none-eabi/lib/thumb/v6-m/nofp\libg_nano.a(libc_a-wbuf.o)
 .debug_aranges
                0x00001198       0x20 D:/Program Files/STM32CubeCLT_1.21.0/GNU-tools-for-STM32/bin/../lib/gcc/arm-none-eabi/14.3.1/../../../../arm-none-eabi/lib/thumb/v6-m/nofp\libg_nano.a(libc_a-wsetup.o)
 .debug_aranges
                0x000011b8       0x20 D:/Program Files/STM32CubeCLT_1.21.0/GNU-tools-for-STM32/bin/../lib/gcc/arm-none-eabi/14.3.1/../../../../arm-none-eabi/lib/thumb/v6-m/nofp\libg_nano.a(libc_a-memmove.o)
 .debug_aranges
                0x000011d8       0x20 D:/Program Files/STM32CubeCLT_1.21.0/GNU-tools-for-STM32/bin/../lib/gcc/arm-none-eabi/14.3.1/../../../../arm-none-eabi/lib/thumb/v6-m/nofp\libg_nano.a(libc_a-sbrkr.o)
 .debug_aranges
                0x000011f8       0x20 D:/Program Files/STM32CubeCLT_1.21.0/GNU-tools-for-STM32/bin/../lib/gcc/arm-none-eabi/14.3.1/../../../../arm-none-eabi/lib/thumb/v6-m/nofp\libg_nano.a(libc_a-memchr-stub.o)
 .debug_aranges
                0x00001218       0x20 D:/Program Files/STM32CubeCLT_1.21.0/GNU-tools-for-STM32/bin/../lib/gcc/arm-none-eabi/14.3.1/../../../../arm-none-eabi/lib/thumb/v6-m/nofp\libg_nano.a(libc_a-reallocr.o)
 .debug_aranges
                0x00001238       0x28 D:/Program Files/STM32CubeCLT_1.21.0/GNU-tools-for-STM32/bin/../lib/gcc/arm-none-eabi/14.3.1/../../../../arm-none-eabi/lib/thumb/v6-m/nofp\libg_nano.a(libc_a-makebuf.o)
 .debug_aranges
                0x00001260       0x20 D:/Program Files/STM32CubeCLT_1.21.0/GNU-tools-for-STM32/bin/../lib/gcc/arm-none-eabi/14.3.1/../../../../arm-none-eabi/lib/thumb/v6-m/nofp\libg_nano.a(libc_a-fstatr.o)
 .debug_aranges
                0x00001280       0x20 D:/Program Files/STM32CubeCLT_1.21.0/GNU-tools-for-STM32/bin/../lib/gcc/arm-none-eabi/14.3.1/../../../../arm-none-eabi/lib/thumb/v6-m/nofp\libg_nano.a(libc_a-isattyr.o)
 .debug_aranges
                0x000012a0       0x20 D:/Program Files/STM32CubeCLT_1.21.0/GNU-tools-for-STM32/bin/../lib/gcc/arm-none-eabi/14.3.1/../../../../arm-none-eabi/lib/thumb/v6-m/nofp\libg_nano.a(libc_a-msizer.o)

.debug_rnglists
                0x00000000     0x1621
 .debug_rnglists
                0x00000000       0x13 CMakeFiles/MSPM0G3507_BASIC.elf.dir/empty.c.obj
 .debug_rnglists
                0x00000013       0x31 CMakeFiles/MSPM0G3507_BASIC.elf.dir/app/syscalls_stub.c.obj
 .debug_rnglists
                0x00000044      0x280 CMakeFiles/MSPM0G3507_BASIC.elf.dir/syscfg/ti_msp_dl_config.c.obj
 .debug_rnglists
                0x000002c4       0x1f CMakeFiles/MSPM0G3507_BASIC.elf.dir/D_/tools/ti/mspm0_sdk_2_10_00_04/source/ti/devices/msp/m0p/startup_system_files/gcc/startup_mspm0g350x_gcc.c.obj
 .debug_rnglists
                0x000002e3       0xe9 CMakeFiles/MSPM0G3507_BASIC.elf.dir/D_/tools/ti/mspm0_sdk_2_10_00_04/kernel/freertos/Source/event_groups.c.obj
 .debug_rnglists
                0x000003cc       0x2b CMakeFiles/MSPM0G3507_BASIC.elf.dir/D_/tools/ti/mspm0_sdk_2_10_00_04/kernel/freertos/Source/list.c.obj
 .debug_rnglists
                0x000003f7      0x2d3 CMakeFiles/MSPM0G3507_BASIC.elf.dir/D_/tools/ti/mspm0_sdk_2_10_00_04/kernel/freertos/Source/queue.c.obj
 .debug_rnglists
                0x000006ca      0x192 CMakeFiles/MSPM0G3507_BASIC.elf.dir/D_/tools/ti/mspm0_sdk_2_10_00_04/kernel/freertos/Source/stream_buffer.c.obj
 .debug_rnglists
                0x0000085c      0x554 CMakeFiles/MSPM0G3507_BASIC.elf.dir/D_/tools/ti/mspm0_sdk_2_10_00_04/kernel/freertos/Source/tasks.c.obj
 .debug_rnglists
                0x00000db0      0x184 CMakeFiles/MSPM0G3507_BASIC.elf.dir/D_/tools/ti/mspm0_sdk_2_10_00_04/kernel/freertos/Source/timers.c.obj
 .debug_rnglists
                0x00000f34       0x59 CMakeFiles/MSPM0G3507_BASIC.elf.dir/D_/tools/ti/mspm0_sdk_2_10_00_04/kernel/freertos/Source/portable/MemMang/heap_4.c.obj
 .debug_rnglists
                0x00000f8d       0x77 CMakeFiles/MSPM0G3507_BASIC.elf.dir/D_/tools/ti/mspm0_sdk_2_10_00_04/kernel/freertos/Source/portable/GCC/ARM_CM0/port.c.obj
 .debug_rnglists
                0x00001004       0x43 CMakeFiles/MSPM0G3507_BASIC.elf.dir/D_/tools/ti/mspm0_sdk_2_10_00_04/kernel/freertos/Source/portable/GCC/ARM_CM0/portasm.c.obj
 .debug_rnglists
                0x00001047       0x13 CMakeFiles/MSPM0G3507_BASIC.elf.dir/D_/tools/ti/mspm0_sdk_2_10_00_04/kernel/freertos/dpl/AppHooks_freertos.c.obj
 .debug_rnglists
                0x0000105a       0x19 CMakeFiles/MSPM0G3507_BASIC.elf.dir/app/freertos_hooks.c.obj
 .debug_rnglists
                0x00001073       0x6a app/libapp.a(robot.c.obj)
 .debug_rnglists
                0x000010dd       0x13 bsp/libbsp.a(bsp_init.c.obj)
 .debug_rnglists
                0x000010f0       0x97 bsp/libbsp.a(bsp_dwt.c.obj)
 .debug_rnglists
                0x00001187       0x1f bsp/libbsp.a(bsp_log.c.obj)
 .debug_rnglists
                0x000011a6       0x6e D:/Program Files/STM32CubeCLT_1.21.0/GNU-tools-for-STM32/bin/../lib/gcc/arm-none-eabi/14.3.1/../../../../arm-none-eabi/lib/thumb/v6-m/nofp\libg_nano.a(libc_a-findfp.o)
 .debug_rnglists
                0x00001214       0x13 D:/Program Files/STM32CubeCLT_1.21.0/GNU-tools-for-STM32/bin/../lib/gcc/arm-none-eabi/14.3.1/../../../../arm-none-eabi/lib/thumb/v6-m/nofp\libg_nano.a(libc_a-fwalk.o)
 .debug_rnglists
                0x00001227       0x19 D:/Program Files/STM32CubeCLT_1.21.0/GNU-tools-for-STM32/bin/../lib/gcc/arm-none-eabi/14.3.1/../../../../arm-none-eabi/lib/thumb/v6-m/nofp\libg_nano.a(libc_a-sprintf.o)
 .debug_rnglists
                0x00001240       0x2b D:/Program Files/STM32CubeCLT_1.21.0/GNU-tools-for-STM32/bin/../lib/gcc/arm-none-eabi/14.3.1/../../../../arm-none-eabi/lib/thumb/v6-m/nofp\libg_nano.a(libc_a-stdio.o)
 .debug_rnglists
                0x0000126b       0x19 D:/Program Files/STM32CubeCLT_1.21.0/GNU-tools-for-STM32/bin/../lib/gcc/arm-none-eabi/14.3.1/../../../../arm-none-eabi/lib/thumb/v6-m/nofp\libg_nano.a(libc_a-vprintf.o)
 .debug_rnglists
                0x00001284       0x13 D:/Program Files/STM32CubeCLT_1.21.0/GNU-tools-for-STM32/bin/../lib/gcc/arm-none-eabi/14.3.1/../../../../arm-none-eabi/lib/thumb/v6-m/nofp\libg_nano.a(libc_a-memset.o)
 .debug_rnglists
                0x00001297       0x13 D:/Program Files/STM32CubeCLT_1.21.0/GNU-tools-for-STM32/bin/../lib/gcc/arm-none-eabi/14.3.1/../../../../arm-none-eabi/lib/thumb/v6-m/nofp\libg_nano.a(libc_a-closer.o)
 .debug_rnglists
                0x000012aa       0x2c D:/Program Files/STM32CubeCLT_1.21.0/GNU-tools-for-STM32/bin/../lib/gcc/arm-none-eabi/14.3.1/../../../../arm-none-eabi/lib/thumb/v6-m/nofp\libg_nano.a(libc_a-reent.o)
 .debug_rnglists
                0x000012d6       0x13 D:/Program Files/STM32CubeCLT_1.21.0/GNU-tools-for-STM32/bin/../lib/gcc/arm-none-eabi/14.3.1/../../../../arm-none-eabi/lib/thumb/v6-m/nofp\libg_nano.a(libc_a-lseekr.o)
 .debug_rnglists
                0x000012e9       0x13 D:/Program Files/STM32CubeCLT_1.21.0/GNU-tools-for-STM32/bin/../lib/gcc/arm-none-eabi/14.3.1/../../../../arm-none-eabi/lib/thumb/v6-m/nofp\libg_nano.a(libc_a-readr.o)
 .debug_rnglists
                0x000012fc       0x13 D:/Program Files/STM32CubeCLT_1.21.0/GNU-tools-for-STM32/bin/../lib/gcc/arm-none-eabi/14.3.1/../../../../arm-none-eabi/lib/thumb/v6-m/nofp\libg_nano.a(libc_a-writer.o)
 .debug_rnglists
                0x0000130f       0x13 D:/Program Files/STM32CubeCLT_1.21.0/GNU-tools-for-STM32/bin/../lib/gcc/arm-none-eabi/14.3.1/../../../../arm-none-eabi/lib/thumb/v6-m/nofp\libg_nano.a(libc_a-errno.o)
 .debug_rnglists
                0x00001322       0x13 D:/Program Files/STM32CubeCLT_1.21.0/GNU-tools-for-STM32/bin/../lib/gcc/arm-none-eabi/14.3.1/../../../../arm-none-eabi/lib/thumb/v6-m/nofp\libg_nano.a(libc_a-init.o)
 .debug_rnglists
                0x00001335       0x49 D:/Program Files/STM32CubeCLT_1.21.0/GNU-tools-for-STM32/bin/../lib/gcc/arm-none-eabi/14.3.1/../../../../arm-none-eabi/lib/thumb/v6-m/nofp\libg_nano.a(libc_a-lock.o)
 .debug_rnglists
                0x0000137e       0x13 D:/Program Files/STM32CubeCLT_1.21.0/GNU-tools-for-STM32/bin/../lib/gcc/arm-none-eabi/14.3.1/../../../../arm-none-eabi/lib/thumb/v6-m/nofp\libg_nano.a(libc_a-memcpy-stub.o)
 .debug_rnglists
                0x00001391       0x14 D:/Program Files/STM32CubeCLT_1.21.0/GNU-tools-for-STM32/bin/../lib/gcc/arm-none-eabi/14.3.1/../../../../arm-none-eabi/lib/thumb/v6-m/nofp\libg_nano.a(libc_a-freer.o)
 .debug_rnglists
                0x000013a5       0x2c D:/Program Files/STM32CubeCLT_1.21.0/GNU-tools-for-STM32/bin/../lib/gcc/arm-none-eabi/14.3.1/../../../../arm-none-eabi/lib/thumb/v6-m/nofp\libg_nano.a(libc_a-mallocr.o)
 .debug_rnglists
                0x000013d1       0x19 D:/Program Files/STM32CubeCLT_1.21.0/GNU-tools-for-STM32/bin/../lib/gcc/arm-none-eabi/14.3.1/../../../../arm-none-eabi/lib/thumb/v6-m/nofp\libg_nano.a(libc_a-mlock.o)
 .debug_rnglists
                0x000013ea       0x4f D:/Program Files/STM32CubeCLT_1.21.0/GNU-tools-for-STM32/bin/../lib/gcc/arm-none-eabi/14.3.1/../../../../arm-none-eabi/lib/thumb/v6-m/nofp\libg_nano.a(libc_a-nano-svfprintf.o)
 .debug_rnglists
                0x00001439       0x3b D:/Program Files/STM32CubeCLT_1.21.0/GNU-tools-for-STM32/bin/../lib/gcc/arm-none-eabi/14.3.1/../../../../arm-none-eabi/lib/thumb/v6-m/nofp\libg_nano.a(libc_a-nano-vfprintf.o)
 .debug_rnglists
                0x00001474       0x49 D:/Program Files/STM32CubeCLT_1.21.0/GNU-tools-for-STM32/bin/../lib/gcc/arm-none-eabi/14.3.1/../../../../arm-none-eabi/lib/thumb/v6-m/nofp\libg_nano.a(libc_a-nano-vfprintf_i.o)
 .debug_rnglists
                0x000014bd       0x40 D:/Program Files/STM32CubeCLT_1.21.0/GNU-tools-for-STM32/bin/../lib/gcc/arm-none-eabi/14.3.1/../../../../arm-none-eabi/lib/thumb/v6-m/nofp\libg_nano.a(libc_a-fflush.o)
 .debug_rnglists
                0x000014fd       0x31 D:/Program Files/STM32CubeCLT_1.21.0/GNU-tools-for-STM32/bin/../lib/gcc/arm-none-eabi/14.3.1/../../../../arm-none-eabi/lib/thumb/v6-m/nofp\libg_nano.a(libc_a-fvwrite.o)
 .debug_rnglists
                0x0000152e       0x26 D:/Program Files/STM32CubeCLT_1.21.0/GNU-tools-for-STM32/bin/../lib/gcc/arm-none-eabi/14.3.1/../../../../arm-none-eabi/lib/thumb/v6-m/nofp\libg_nano.a(libc_a-wbuf.o)
 .debug_rnglists
                0x00001554       0x23 D:/Program Files/STM32CubeCLT_1.21.0/GNU-tools-for-STM32/bin/../lib/gcc/arm-none-eabi/14.3.1/../../../../arm-none-eabi/lib/thumb/v6-m/nofp\libg_nano.a(libc_a-wsetup.o)
 .debug_rnglists
                0x00001577       0x13 D:/Program Files/STM32CubeCLT_1.21.0/GNU-tools-for-STM32/bin/../lib/gcc/arm-none-eabi/14.3.1/../../../../arm-none-eabi/lib/thumb/v6-m/nofp\libg_nano.a(libc_a-memmove.o)
 .debug_rnglists
                0x0000158a       0x13 D:/Program Files/STM32CubeCLT_1.21.0/GNU-tools-for-STM32/bin/../lib/gcc/arm-none-eabi/14.3.1/../../../../arm-none-eabi/lib/thumb/v6-m/nofp\libg_nano.a(libc_a-sbrkr.o)
 .debug_rnglists
                0x0000159d       0x13 D:/Program Files/STM32CubeCLT_1.21.0/GNU-tools-for-STM32/bin/../lib/gcc/arm-none-eabi/14.3.1/../../../../arm-none-eabi/lib/thumb/v6-m/nofp\libg_nano.a(libc_a-memchr-stub.o)
 .debug_rnglists
                0x000015b0       0x13 D:/Program Files/STM32CubeCLT_1.21.0/GNU-tools-for-STM32/bin/../lib/gcc/arm-none-eabi/14.3.1/../../../../arm-none-eabi/lib/thumb/v6-m/nofp\libg_nano.a(libc_a-reallocr.o)
 .debug_rnglists
                0x000015c3       0x25 D:/Program Files/STM32CubeCLT_1.21.0/GNU-tools-for-STM32/bin/../lib/gcc/arm-none-eabi/14.3.1/../../../../arm-none-eabi/lib/thumb/v6-m/nofp\libg_nano.a(libc_a-makebuf.o)
 .debug_rnglists
                0x000015e8       0x13 D:/Program Files/STM32CubeCLT_1.21.0/GNU-tools-for-STM32/bin/../lib/gcc/arm-none-eabi/14.3.1/../../../../arm-none-eabi/lib/thumb/v6-m/nofp\libg_nano.a(libc_a-fstatr.o)
 .debug_rnglists
                0x000015fb       0x13 D:/Program Files/STM32CubeCLT_1.21.0/GNU-tools-for-STM32/bin/../lib/gcc/arm-none-eabi/14.3.1/../../../../arm-none-eabi/lib/thumb/v6-m/nofp\libg_nano.a(libc_a-isattyr.o)
 .debug_rnglists
                0x0000160e       0x13 D:/Program Files/STM32CubeCLT_1.21.0/GNU-tools-for-STM32/bin/../lib/gcc/arm-none-eabi/14.3.1/../../../../arm-none-eabi/lib/thumb/v6-m/nofp\libg_nano.a(libc_a-msizer.o)

.debug_line     0x00000000    0x19961
 .debug_line    0x00000000      0x4fa CMakeFiles/MSPM0G3507_BASIC.elf.dir/empty.c.obj
 .debug_line    0x000004fa      0x335 CMakeFiles/MSPM0G3507_BASIC.elf.dir/app/syscalls_stub.c.obj
 .debug_line    0x0000082f     0x11a3 CMakeFiles/MSPM0G3507_BASIC.elf.dir/syscfg/ti_msp_dl_config.c.obj
 .debug_line    0x000019d2      0x253 CMakeFiles/MSPM0G3507_BASIC.elf.dir/D_/tools/ti/mspm0_sdk_2_10_00_04/source/ti/devices/msp/m0p/startup_system_files/gcc/startup_mspm0g350x_gcc.c.obj
 .debug_line    0x00001c25       0x63 CMakeFiles/MSPM0G3507_BASIC.elf.dir/D_/tools/ti/mspm0_sdk_2_10_00_04/kernel/freertos/Source/croutine.c.obj
 .debug_line    0x00001c88      0xb79 CMakeFiles/MSPM0G3507_BASIC.elf.dir/D_/tools/ti/mspm0_sdk_2_10_00_04/kernel/freertos/Source/event_groups.c.obj
 .debug_line    0x00002801      0x448 CMakeFiles/MSPM0G3507_BASIC.elf.dir/D_/tools/ti/mspm0_sdk_2_10_00_04/kernel/freertos/Source/list.c.obj
 .debug_line    0x00002c49     0x1d29 CMakeFiles/MSPM0G3507_BASIC.elf.dir/D_/tools/ti/mspm0_sdk_2_10_00_04/kernel/freertos/Source/queue.c.obj
 .debug_line    0x00004972     0x172f CMakeFiles/MSPM0G3507_BASIC.elf.dir/D_/tools/ti/mspm0_sdk_2_10_00_04/kernel/freertos/Source/stream_buffer.c.obj
 .debug_line    0x000060a1     0x3970 CMakeFiles/MSPM0G3507_BASIC.elf.dir/D_/tools/ti/mspm0_sdk_2_10_00_04/kernel/freertos/Source/tasks.c.obj
 .debug_line    0x00009a11      0xf1b CMakeFiles/MSPM0G3507_BASIC.elf.dir/D_/tools/ti/mspm0_sdk_2_10_00_04/kernel/freertos/Source/timers.c.obj
 .debug_line    0x0000a92c      0x9d0 CMakeFiles/MSPM0G3507_BASIC.elf.dir/D_/tools/ti/mspm0_sdk_2_10_00_04/kernel/freertos/Source/portable/MemMang/heap_4.c.obj
 .debug_line    0x0000b2fc      0x75b CMakeFiles/MSPM0G3507_BASIC.elf.dir/D_/tools/ti/mspm0_sdk_2_10_00_04/kernel/freertos/Source/portable/GCC/ARM_CM0/port.c.obj
 .debug_line    0x0000ba57      0x290 CMakeFiles/MSPM0G3507_BASIC.elf.dir/D_/tools/ti/mspm0_sdk_2_10_00_04/kernel/freertos/Source/portable/GCC/ARM_CM0/portasm.c.obj
 .debug_line    0x0000bce7       0xcd CMakeFiles/MSPM0G3507_BASIC.elf.dir/D_/tools/ti/mspm0_sdk_2_10_00_04/kernel/freertos/dpl/AppHooks_freertos.c.obj
 .debug_line    0x0000bdb4      0x327 CMakeFiles/MSPM0G3507_BASIC.elf.dir/app/freertos_hooks.c.obj
 .debug_line    0x0000c0db      0x874 app/libapp.a(robot.c.obj)
 .debug_line    0x0000c94f      0x4aa bsp/libbsp.a(bsp_init.c.obj)
 .debug_line    0x0000cdf9      0x709 bsp/libbsp.a(bsp_dwt.c.obj)
 .debug_line    0x0000d502      0x242 bsp/libbsp.a(bsp_log.c.obj)
 .debug_line    0x0000d744      0x5d5 D:/tools/ti/mspm0_sdk_2_10_00_04/source/ti/driverlib/lib/gcc/m0p/mspm0g1x0x_g3x0x/driverlib.a(dl_adc12.o)
 .debug_line    0x0000dd19      0x425 D:/tools/ti/mspm0_sdk_2_10_00_04/source/ti/driverlib/lib/gcc/m0p/mspm0g1x0x_g3x0x/driverlib.a(dl_common.o)
 .debug_line    0x0000e13e      0xaac D:/tools/ti/mspm0_sdk_2_10_00_04/source/ti/driverlib/lib/gcc/m0p/mspm0g1x0x_g3x0x/driverlib.a(dl_i2c.o)
 .debug_line    0x0000ebea     0x107b D:/tools/ti/mspm0_sdk_2_10_00_04/source/ti/driverlib/lib/gcc/m0p/mspm0g1x0x_g3x0x/driverlib.a(dl_spi.o)
 .debug_line    0x0000fc65     0x24ea D:/tools/ti/mspm0_sdk_2_10_00_04/source/ti/driverlib/lib/gcc/m0p/mspm0g1x0x_g3x0x/driverlib.a(dl_timer.o)
 .debug_line    0x0001214f      0xee0 D:/tools/ti/mspm0_sdk_2_10_00_04/source/ti/driverlib/lib/gcc/m0p/mspm0g1x0x_g3x0x/driverlib.a(dl_uart.o)
 .debug_line    0x0001302f      0x639 D:/Program Files/STM32CubeCLT_1.21.0/GNU-tools-for-STM32/bin/../lib/gcc/arm-none-eabi/14.3.1/../../../../arm-none-eabi/lib/thumb/v6-m/nofp\libg_nano.a(libc_a-findfp.o)
 .debug_line    0x00013668      0x23f D:/Program Files/STM32CubeCLT_1.21.0/GNU-tools-for-STM32/bin/../lib/gcc/arm-none-eabi/14.3.1/../../../../arm-none-eabi/lib/thumb/v6-m/nofp\libg_nano.a(libc_a-fwalk.o)
 .debug_line    0x000138a7      0x2bf D:/Program Files/STM32CubeCLT_1.21.0/GNU-tools-for-STM32/bin/../lib/gcc/arm-none-eabi/14.3.1/../../../../arm-none-eabi/lib/thumb/v6-m/nofp\libg_nano.a(libc_a-sprintf.o)
 .debug_line    0x00013b66      0x2f4 D:/Program Files/STM32CubeCLT_1.21.0/GNU-tools-for-STM32/bin/../lib/gcc/arm-none-eabi/14.3.1/../../../../arm-none-eabi/lib/thumb/v6-m/nofp\libg_nano.a(libc_a-stdio.o)
 .debug_line    0x00013e5a      0x230 D:/Program Files/STM32CubeCLT_1.21.0/GNU-tools-for-STM32/bin/../lib/gcc/arm-none-eabi/14.3.1/../../../../arm-none-eabi/lib/thumb/v6-m/nofp\libg_nano.a(libc_a-vprintf.o)
 .debug_line    0x0001408a      0x178 D:/Program Files/STM32CubeCLT_1.21.0/GNU-tools-for-STM32/bin/../lib/gcc/arm-none-eabi/14.3.1/../../../../arm-none-eabi/lib/thumb/v6-m/nofp\libg_nano.a(libc_a-memset.o)
 .debug_line    0x00014202      0x21f D:/Program Files/STM32CubeCLT_1.21.0/GNU-tools-for-STM32/bin/../lib/gcc/arm-none-eabi/14.3.1/../../../../arm-none-eabi/lib/thumb/v6-m/nofp\libg_nano.a(libc_a-closer.o)
 .debug_line    0x00014421      0x2ef D:/Program Files/STM32CubeCLT_1.21.0/GNU-tools-for-STM32/bin/../lib/gcc/arm-none-eabi/14.3.1/../../../../arm-none-eabi/lib/thumb/v6-m/nofp\libg_nano.a(libc_a-reent.o)
 .debug_line    0x00014710      0x163 D:/Program Files/STM32CubeCLT_1.21.0/GNU-tools-for-STM32/bin/../lib/gcc/arm-none-eabi/14.3.1/../../../../arm-none-eabi/lib/thumb/v6-m/nofp\libg_nano.a(libc_a-impure.o)
 .debug_line    0x00014873      0x21a D:/Program Files/STM32CubeCLT_1.21.0/GNU-tools-for-STM32/bin/../lib/gcc/arm-none-eabi/14.3.1/../../../../arm-none-eabi/lib/thumb/v6-m/nofp\libg_nano.a(libc_a-lseekr.o)
 .debug_line    0x00014a8d      0x219 D:/Program Files/STM32CubeCLT_1.21.0/GNU-tools-for-STM32/bin/../lib/gcc/arm-none-eabi/14.3.1/../../../../arm-none-eabi/lib/thumb/v6-m/nofp\libg_nano.a(libc_a-readr.o)
 .debug_line    0x00014ca6      0x21a D:/Program Files/STM32CubeCLT_1.21.0/GNU-tools-for-STM32/bin/../lib/gcc/arm-none-eabi/14.3.1/../../../../arm-none-eabi/lib/thumb/v6-m/nofp\libg_nano.a(libc_a-writer.o)
 .debug_line    0x00014ec0      0x192 D:/Program Files/STM32CubeCLT_1.21.0/GNU-tools-for-STM32/bin/../lib/gcc/arm-none-eabi/14.3.1/../../../../arm-none-eabi/lib/thumb/v6-m/nofp\libg_nano.a(libc_a-errno.o)
 .debug_line    0x00015052      0x16c D:/Program Files/STM32CubeCLT_1.21.0/GNU-tools-for-STM32/bin/../lib/gcc/arm-none-eabi/14.3.1/../../../../arm-none-eabi/lib/thumb/v6-m/nofp\libg_nano.a(libc_a-init.o)
 .debug_line    0x000151be      0x19b D:/Program Files/STM32CubeCLT_1.21.0/GNU-tools-for-STM32/bin/../lib/gcc/arm-none-eabi/14.3.1/../../../../arm-none-eabi/lib/thumb/v6-m/nofp\libg_nano.a(libc_a-lock.o)
 .debug_line    0x00015359      0x201 D:/Program Files/STM32CubeCLT_1.21.0/GNU-tools-for-STM32/bin/../lib/gcc/arm-none-eabi/14.3.1/../../../../arm-none-eabi/lib/thumb/v6-m/nofp\libg_nano.a(libc_a-memcpy-stub.o)
 .debug_line    0x0001555a      0x313 D:/Program Files/STM32CubeCLT_1.21.0/GNU-tools-for-STM32/bin/../lib/gcc/arm-none-eabi/14.3.1/../../../../arm-none-eabi/lib/thumb/v6-m/nofp\libg_nano.a(libc_a-freer.o)
 .debug_line    0x0001586d      0x506 D:/Program Files/STM32CubeCLT_1.21.0/GNU-tools-for-STM32/bin/../lib/gcc/arm-none-eabi/14.3.1/../../../../arm-none-eabi/lib/thumb/v6-m/nofp\libg_nano.a(libc_a-mallocr.o)
 .debug_line    0x00015d73      0x1ff D:/Program Files/STM32CubeCLT_1.21.0/GNU-tools-for-STM32/bin/../lib/gcc/arm-none-eabi/14.3.1/../../../../arm-none-eabi/lib/thumb/v6-m/nofp\libg_nano.a(libc_a-mlock.o)
 .debug_line    0x00015f72      0x90b D:/Program Files/STM32CubeCLT_1.21.0/GNU-tools-for-STM32/bin/../lib/gcc/arm-none-eabi/14.3.1/../../../../arm-none-eabi/lib/thumb/v6-m/nofp\libg_nano.a(libc_a-nano-svfprintf.o)
 .debug_line    0x0001687d      0x71d D:/Program Files/STM32CubeCLT_1.21.0/GNU-tools-for-STM32/bin/../lib/gcc/arm-none-eabi/14.3.1/../../../../arm-none-eabi/lib/thumb/v6-m/nofp\libg_nano.a(libc_a-nano-vfprintf.o)
 .debug_line    0x00016f9a      0x6c0 D:/Program Files/STM32CubeCLT_1.21.0/GNU-tools-for-STM32/bin/../lib/gcc/arm-none-eabi/14.3.1/../../../../arm-none-eabi/lib/thumb/v6-m/nofp\libg_nano.a(libc_a-nano-vfprintf_i.o)
 .debug_line    0x0001765a      0x45c D:/Program Files/STM32CubeCLT_1.21.0/GNU-tools-for-STM32/bin/../lib/gcc/arm-none-eabi/14.3.1/../../../../arm-none-eabi/lib/thumb/v6-m/nofp\libg_nano.a(libc_a-fflush.o)
 .debug_line    0x00017ab6      0x628 D:/Program Files/STM32CubeCLT_1.21.0/GNU-tools-for-STM32/bin/../lib/gcc/arm-none-eabi/14.3.1/../../../../arm-none-eabi/lib/thumb/v6-m/nofp\libg_nano.a(libc_a-fvwrite.o)
 .debug_line    0x000180de      0x2d2 D:/Program Files/STM32CubeCLT_1.21.0/GNU-tools-for-STM32/bin/../lib/gcc/arm-none-eabi/14.3.1/../../../../arm-none-eabi/lib/thumb/v6-m/nofp\libg_nano.a(libc_a-wbuf.o)
 .debug_line    0x000183b0      0x2f0 D:/Program Files/STM32CubeCLT_1.21.0/GNU-tools-for-STM32/bin/../lib/gcc/arm-none-eabi/14.3.1/../../../../arm-none-eabi/lib/thumb/v6-m/nofp\libg_nano.a(libc_a-wsetup.o)
 .debug_line    0x000186a0      0x1a4 D:/Program Files/STM32CubeCLT_1.21.0/GNU-tools-for-STM32/bin/../lib/gcc/arm-none-eabi/14.3.1/../../../../arm-none-eabi/lib/thumb/v6-m/nofp\libg_nano.a(libc_a-memmove.o)
 .debug_line    0x00018844      0x21f D:/Program Files/STM32CubeCLT_1.21.0/GNU-tools-for-STM32/bin/../lib/gcc/arm-none-eabi/14.3.1/../../../../arm-none-eabi/lib/thumb/v6-m/nofp\libg_nano.a(libc_a-sbrkr.o)
 .debug_line    0x00018a63      0x201 D:/Program Files/STM32CubeCLT_1.21.0/GNU-tools-for-STM32/bin/../lib/gcc/arm-none-eabi/14.3.1/../../../../arm-none-eabi/lib/thumb/v6-m/nofp\libg_nano.a(libc_a-memchr-stub.o)
 .debug_line    0x00018c64      0x27e D:/Program Files/STM32CubeCLT_1.21.0/GNU-tools-for-STM32/bin/../lib/gcc/arm-none-eabi/14.3.1/../../../../arm-none-eabi/lib/thumb/v6-m/nofp\libg_nano.a(libc_a-reallocr.o)
 .debug_line    0x00018ee2      0x3a5 D:/Program Files/STM32CubeCLT_1.21.0/GNU-tools-for-STM32/bin/../lib/gcc/arm-none-eabi/14.3.1/../../../../arm-none-eabi/lib/thumb/v6-m/nofp\libg_nano.a(libc_a-makebuf.o)
 .debug_line    0x00019287      0x2b4 D:/Program Files/STM32CubeCLT_1.21.0/GNU-tools-for-STM32/bin/../lib/gcc/arm-none-eabi/14.3.1/../../../../arm-none-eabi/lib/thumb/v6-m/nofp\libg_nano.a(libc_a-fstatr.o)
 .debug_line    0x0001953b      0x220 D:/Program Files/STM32CubeCLT_1.21.0/GNU-tools-for-STM32/bin/../lib/gcc/arm-none-eabi/14.3.1/../../../../arm-none-eabi/lib/thumb/v6-m/nofp\libg_nano.a(libc_a-isattyr.o)
 .debug_line    0x0001975b      0x206 D:/Program Files/STM32CubeCLT_1.21.0/GNU-tools-for-STM32/bin/../lib/gcc/arm-none-eabi/14.3.1/../../../../arm-none-eabi/lib/thumb/v6-m/nofp\libg_nano.a(libc_a-msizer.o)

.debug_str      0x00000000     0xbab1
 .debug_str     0x00000000     0xbab1 CMakeFiles/MSPM0G3507_BASIC.elf.dir/empty.c.obj
                               0x1abd (size before relaxing)
 .debug_str     0x0000bab1      0x336 CMakeFiles/MSPM0G3507_BASIC.elf.dir/app/syscalls_stub.c.obj
 .debug_str     0x0000bab1     0x4871 CMakeFiles/MSPM0G3507_BASIC.elf.dir/syscfg/ti_msp_dl_config.c.obj
 .debug_str     0x0000bab1      0x2eb CMakeFiles/MSPM0G3507_BASIC.elf.dir/D_/tools/ti/mspm0_sdk_2_10_00_04/source/ti/devices/msp/m0p/startup_system_files/gcc/startup_mspm0g350x_gcc.c.obj
 .debug_str     0x0000bab1      0x195 CMakeFiles/MSPM0G3507_BASIC.elf.dir/D_/tools/ti/mspm0_sdk_2_10_00_04/kernel/freertos/Source/croutine.c.obj
 .debug_str     0x0000bab1      0x799 CMakeFiles/MSPM0G3507_BASIC.elf.dir/D_/tools/ti/mspm0_sdk_2_10_00_04/kernel/freertos/Source/event_groups.c.obj
 .debug_str     0x0000bab1      0x2e4 CMakeFiles/MSPM0G3507_BASIC.elf.dir/D_/tools/ti/mspm0_sdk_2_10_00_04/kernel/freertos/Source/list.c.obj
 .debug_str     0x0000bab1      0xc63 CMakeFiles/MSPM0G3507_BASIC.elf.dir/D_/tools/ti/mspm0_sdk_2_10_00_04/kernel/freertos/Source/queue.c.obj
 .debug_str     0x0000bab1      0xae3 CMakeFiles/MSPM0G3507_BASIC.elf.dir/D_/tools/ti/mspm0_sdk_2_10_00_04/kernel/freertos/Source/stream_buffer.c.obj
 .debug_str     0x0000bab1     0x19e1 CMakeFiles/MSPM0G3507_BASIC.elf.dir/D_/tools/ti/mspm0_sdk_2_10_00_04/kernel/freertos/Source/tasks.c.obj
 .debug_str     0x0000bab1      0xef8 CMakeFiles/MSPM0G3507_BASIC.elf.dir/D_/tools/ti/mspm0_sdk_2_10_00_04/kernel/freertos/Source/timers.c.obj
 .debug_str     0x0000bab1      0x564 CMakeFiles/MSPM0G3507_BASIC.elf.dir/D_/tools/ti/mspm0_sdk_2_10_00_04/kernel/freertos/Source/portable/MemMang/heap_4.c.obj
 .debug_str     0x0000bab1      0x581 CMakeFiles/MSPM0G3507_BASIC.elf.dir/D_/tools/ti/mspm0_sdk_2_10_00_04/kernel/freertos/Source/portable/GCC/ARM_CM0/port.c.obj
 .debug_str     0x0000bab1      0x26a CMakeFiles/MSPM0G3507_BASIC.elf.dir/D_/tools/ti/mspm0_sdk_2_10_00_04/kernel/freertos/Source/portable/GCC/ARM_CM0/portasm.c.obj
 .debug_str     0x0000bab1      0x1ec CMakeFiles/MSPM0G3507_BASIC.elf.dir/D_/tools/ti/mspm0_sdk_2_10_00_04/kernel/freertos/dpl/AppHooks_freertos.c.obj
 .debug_str     0x0000bab1      0x67c CMakeFiles/MSPM0G3507_BASIC.elf.dir/app/freertos_hooks.c.obj
 .debug_str     0x0000bab1     0x1d69 app/libapp.a(robot.c.obj)
 .debug_str     0x0000bab1     0x1aae bsp/libbsp.a(bsp_init.c.obj)
 .debug_str     0x0000bab1     0x1c0d bsp/libbsp.a(bsp_dwt.c.obj)
 .debug_str     0x0000bab1      0x27e bsp/libbsp.a(bsp_log.c.obj)
 .debug_str     0x0000bab1     0x21dd D:/tools/ti/mspm0_sdk_2_10_00_04/source/ti/driverlib/lib/gcc/m0p/mspm0g1x0x_g3x0x/driverlib.a(dl_adc12.o)
 .debug_str     0x0000bab1     0x1b28 D:/tools/ti/mspm0_sdk_2_10_00_04/source/ti/driverlib/lib/gcc/m0p/mspm0g1x0x_g3x0x/driverlib.a(dl_common.o)
 .debug_str     0x0000bab1     0x1fe1 D:/tools/ti/mspm0_sdk_2_10_00_04/source/ti/driverlib/lib/gcc/m0p/mspm0g1x0x_g3x0x/driverlib.a(dl_i2c.o)
 .debug_str     0x0000bab1     0x2460 D:/tools/ti/mspm0_sdk_2_10_00_04/source/ti/driverlib/lib/gcc/m0p/mspm0g1x0x_g3x0x/driverlib.a(dl_spi.o)
 .debug_str     0x0000bab1     0x36e0 D:/tools/ti/mspm0_sdk_2_10_00_04/source/ti/driverlib/lib/gcc/m0p/mspm0g1x0x_g3x0x/driverlib.a(dl_timer.o)
 .debug_str     0x0000bab1     0x24ab D:/tools/ti/mspm0_sdk_2_10_00_04/source/ti/driverlib/lib/gcc/m0p/mspm0g1x0x_g3x0x/driverlib.a(dl_uart.o)
 .debug_str     0x0000bab1      0x7ad D:/Program Files/STM32CubeCLT_1.21.0/GNU-tools-for-STM32/bin/../lib/gcc/arm-none-eabi/14.3.1/../../../../arm-none-eabi/lib/thumb/v6-m/nofp\libg_nano.a(libc_a-findfp.o)
 .debug_str     0x0000bab1      0x53a D:/Program Files/STM32CubeCLT_1.21.0/GNU-tools-for-STM32/bin/../lib/gcc/arm-none-eabi/14.3.1/../../../../arm-none-eabi/lib/thumb/v6-m/nofp\libg_nano.a(libc_a-fwalk.o)
 .debug_str     0x0000bab1      0x569 D:/Program Files/STM32CubeCLT_1.21.0/GNU-tools-for-STM32/bin/../lib/gcc/arm-none-eabi/14.3.1/../../../../arm-none-eabi/lib/thumb/v6-m/nofp\libg_nano.a(libc_a-sprintf.o)
 .debug_str     0x0000bab1      0x597 D:/Program Files/STM32CubeCLT_1.21.0/GNU-tools-for-STM32/bin/../lib/gcc/arm-none-eabi/14.3.1/../../../../arm-none-eabi/lib/thumb/v6-m/nofp\libg_nano.a(libc_a-stdio.o)
 .debug_str     0x0000bab1      0x56e D:/Program Files/STM32CubeCLT_1.21.0/GNU-tools-for-STM32/bin/../lib/gcc/arm-none-eabi/14.3.1/../../../../arm-none-eabi/lib/thumb/v6-m/nofp\libg_nano.a(libc_a-vprintf.o)
 .debug_str     0x0000bab1      0x20a D:/Program Files/STM32CubeCLT_1.21.0/GNU-tools-for-STM32/bin/../lib/gcc/arm-none-eabi/14.3.1/../../../../arm-none-eabi/lib/thumb/v6-m/nofp\libg_nano.a(libc_a-memset.o)
 .debug_str     0x0000bab1      0x520 D:/Program Files/STM32CubeCLT_1.21.0/GNU-tools-for-STM32/bin/../lib/gcc/arm-none-eabi/14.3.1/../../../../arm-none-eabi/lib/thumb/v6-m/nofp\libg_nano.a(libc_a-closer.o)
 .debug_str     0x0000bab1      0x549 D:/Program Files/STM32CubeCLT_1.21.0/GNU-tools-for-STM32/bin/../lib/gcc/arm-none-eabi/14.3.1/../../../../arm-none-eabi/lib/thumb/v6-m/nofp\libg_nano.a(libc_a-reent.o)
 .debug_str     0x0000bab1      0x52a D:/Program Files/STM32CubeCLT_1.21.0/GNU-tools-for-STM32/bin/../lib/gcc/arm-none-eabi/14.3.1/../../../../arm-none-eabi/lib/thumb/v6-m/nofp\libg_nano.a(libc_a-impure.o)
 .debug_str     0x0000bab1      0x52e D:/Program Files/STM32CubeCLT_1.21.0/GNU-tools-for-STM32/bin/../lib/gcc/arm-none-eabi/14.3.1/../../../../arm-none-eabi/lib/thumb/v6-m/nofp\libg_nano.a(libc_a-lseekr.o)
 .debug_str     0x0000bab1      0x52e D:/Program Files/STM32CubeCLT_1.21.0/GNU-tools-for-STM32/bin/../lib/gcc/arm-none-eabi/14.3.1/../../../../arm-none-eabi/lib/thumb/v6-m/nofp\libg_nano.a(libc_a-readr.o)
 .debug_str     0x0000bab1      0x530 D:/Program Files/STM32CubeCLT_1.21.0/GNU-tools-for-STM32/bin/../lib/gcc/arm-none-eabi/14.3.1/../../../../arm-none-eabi/lib/thumb/v6-m/nofp\libg_nano.a(libc_a-writer.o)
 .debug_str     0x0000bab1      0x524 D:/Program Files/STM32CubeCLT_1.21.0/GNU-tools-for-STM32/bin/../lib/gcc/arm-none-eabi/14.3.1/../../../../arm-none-eabi/lib/thumb/v6-m/nofp\libg_nano.a(libc_a-errno.o)
 .debug_str     0x0000bab1      0x26b D:/Program Files/STM32CubeCLT_1.21.0/GNU-tools-for-STM32/bin/../lib/gcc/arm-none-eabi/14.3.1/../../../../arm-none-eabi/lib/thumb/v6-m/nofp\libg_nano.a(libc_a-init.o)
 .debug_str     0x0000bab1      0x3a1 D:/Program Files/STM32CubeCLT_1.21.0/GNU-tools-for-STM32/bin/../lib/gcc/arm-none-eabi/14.3.1/../../../../arm-none-eabi/lib/thumb/v6-m/nofp\libg_nano.a(libc_a-lock.o)
 .debug_str     0x0000bab1      0x228 D:/Program Files/STM32CubeCLT_1.21.0/GNU-tools-for-STM32/bin/../lib/gcc/arm-none-eabi/14.3.1/../../../../arm-none-eabi/lib/thumb/v6-m/nofp\libg_nano.a(libc_a-memcpy-stub.o)
 .debug_str     0x0000bab1      0x5aa D:/Program Files/STM32CubeCLT_1.21.0/GNU-tools-for-STM32/bin/../lib/gcc/arm-none-eabi/14.3.1/../../../../arm-none-eabi/lib/thumb/v6-m/nofp\libg_nano.a(libc_a-freer.o)
 .debug_str     0x0000bab1      0x60b D:/Program Files/STM32CubeCLT_1.21.0/GNU-tools-for-STM32/bin/../lib/gcc/arm-none-eabi/14.3.1/../../../../arm-none-eabi/lib/thumb/v6-m/nofp\libg_nano.a(libc_a-mallocr.o)
 .debug_str     0x0000bab1      0x5ac D:/Program Files/STM32CubeCLT_1.21.0/GNU-tools-for-STM32/bin/../lib/gcc/arm-none-eabi/14.3.1/../../../../arm-none-eabi/lib/thumb/v6-m/nofp\libg_nano.a(libc_a-mlock.o)
 .debug_str     0x0000bab1      0x873 D:/Program Files/STM32CubeCLT_1.21.0/GNU-tools-for-STM32/bin/../lib/gcc/arm-none-eabi/14.3.1/../../../../arm-none-eabi/lib/thumb/v6-m/nofp\libg_nano.a(libc_a-nano-svfprintf.o)
 .debug_str     0x0000bab1      0x8db D:/Program Files/STM32CubeCLT_1.21.0/GNU-tools-for-STM32/bin/../lib/gcc/arm-none-eabi/14.3.1/../../../../arm-none-eabi/lib/thumb/v6-m/nofp\libg_nano.a(libc_a-nano-vfprintf.o)
 .debug_str     0x0000bab1      0x81a D:/Program Files/STM32CubeCLT_1.21.0/GNU-tools-for-STM32/bin/../lib/gcc/arm-none-eabi/14.3.1/../../../../arm-none-eabi/lib/thumb/v6-m/nofp\libg_nano.a(libc_a-nano-vfprintf_i.o)
 .debug_str     0x0000bab1      0x5f5 D:/Program Files/STM32CubeCLT_1.21.0/GNU-tools-for-STM32/bin/../lib/gcc/arm-none-eabi/14.3.1/../../../../arm-none-eabi/lib/thumb/v6-m/nofp\libg_nano.a(libc_a-fflush.o)
 .debug_str     0x0000bab1      0x5db D:/Program Files/STM32CubeCLT_1.21.0/GNU-tools-for-STM32/bin/../lib/gcc/arm-none-eabi/14.3.1/../../../../arm-none-eabi/lib/thumb/v6-m/nofp\libg_nano.a(libc_a-fvwrite.o)
 .debug_str     0x0000bab1      0x560 D:/Program Files/STM32CubeCLT_1.21.0/GNU-tools-for-STM32/bin/../lib/gcc/arm-none-eabi/14.3.1/../../../../arm-none-eabi/lib/thumb/v6-m/nofp\libg_nano.a(libc_a-wbuf.o)
 .debug_str     0x0000bab1      0x55b D:/Program Files/STM32CubeCLT_1.21.0/GNU-tools-for-STM32/bin/../lib/gcc/arm-none-eabi/14.3.1/../../../../arm-none-eabi/lib/thumb/v6-m/nofp\libg_nano.a(libc_a-wsetup.o)
 .debug_str     0x0000bab1      0x225 D:/Program Files/STM32CubeCLT_1.21.0/GNU-tools-for-STM32/bin/../lib/gcc/arm-none-eabi/14.3.1/../../../../arm-none-eabi/lib/thumb/v6-m/nofp\libg_nano.a(libc_a-memmove.o)
 .debug_str     0x0000bab1      0x533 D:/Program Files/STM32CubeCLT_1.21.0/GNU-tools-for-STM32/bin/../lib/gcc/arm-none-eabi/14.3.1/../../../../arm-none-eabi/lib/thumb/v6-m/nofp\libg_nano.a(libc_a-sbrkr.o)
 .debug_str     0x0000bab1      0x224 D:/Program Files/STM32CubeCLT_1.21.0/GNU-tools-for-STM32/bin/../lib/gcc/arm-none-eabi/14.3.1/../../../../arm-none-eabi/lib/thumb/v6-m/nofp\libg_nano.a(libc_a-memchr-stub.o)
 .debug_str     0x0000bab1      0x5a0 D:/Program Files/STM32CubeCLT_1.21.0/GNU-tools-for-STM32/bin/../lib/gcc/arm-none-eabi/14.3.1/../../../../arm-none-eabi/lib/thumb/v6-m/nofp\libg_nano.a(libc_a-reallocr.o)
 .debug_str     0x0000bab1      0x6bd D:/Program Files/STM32CubeCLT_1.21.0/GNU-tools-for-STM32/bin/../lib/gcc/arm-none-eabi/14.3.1/../../../../arm-none-eabi/lib/thumb/v6-m/nofp\libg_nano.a(libc_a-makebuf.o)
 .debug_str     0x0000bab1      0x672 D:/Program Files/STM32CubeCLT_1.21.0/GNU-tools-for-STM32/bin/../lib/gcc/arm-none-eabi/14.3.1/../../../../arm-none-eabi/lib/thumb/v6-m/nofp\libg_nano.a(libc_a-fstatr.o)
 .debug_str     0x0000bab1      0x52a D:/Program Files/STM32CubeCLT_1.21.0/GNU-tools-for-STM32/bin/../lib/gcc/arm-none-eabi/14.3.1/../../../../arm-none-eabi/lib/thumb/v6-m/nofp\libg_nano.a(libc_a-isattyr.o)
 .debug_str     0x0000bab1      0x573 D:/Program Files/STM32CubeCLT_1.21.0/GNU-tools-for-STM32/bin/../lib/gcc/arm-none-eabi/14.3.1/../../../../arm-none-eabi/lib/thumb/v6-m/nofp\libg_nano.a(libc_a-msizer.o)

.comment        0x00000000       0xbc
 .comment       0x00000000       0xbc CMakeFiles/MSPM0G3507_BASIC.elf.dir/empty.c.obj
                                 0x44 (size before relaxing)
 .comment       0x000000bc       0x44 CMakeFiles/MSPM0G3507_BASIC.elf.dir/app/syscalls_stub.c.obj
 .comment       0x000000bc       0x44 CMakeFiles/MSPM0G3507_BASIC.elf.dir/syscfg/ti_msp_dl_config.c.obj
 .comment       0x000000bc       0x44 CMakeFiles/MSPM0G3507_BASIC.elf.dir/D_/tools/ti/mspm0_sdk_2_10_00_04/source/ti/devices/msp/m0p/startup_system_files/gcc/startup_mspm0g350x_gcc.c.obj
 .comment       0x000000bc       0x44 CMakeFiles/MSPM0G3507_BASIC.elf.dir/D_/tools/ti/mspm0_sdk_2_10_00_04/kernel/freertos/Source/croutine.c.obj
 .comment       0x000000bc       0x44 CMakeFiles/MSPM0G3507_BASIC.elf.dir/D_/tools/ti/mspm0_sdk_2_10_00_04/kernel/freertos/Source/event_groups.c.obj
 .comment       0x000000bc       0x44 CMakeFiles/MSPM0G3507_BASIC.elf.dir/D_/tools/ti/mspm0_sdk_2_10_00_04/kernel/freertos/Source/list.c.obj
 .comment       0x000000bc       0x44 CMakeFiles/MSPM0G3507_BASIC.elf.dir/D_/tools/ti/mspm0_sdk_2_10_00_04/kernel/freertos/Source/queue.c.obj
 .comment       0x000000bc       0x44 CMakeFiles/MSPM0G3507_BASIC.elf.dir/D_/tools/ti/mspm0_sdk_2_10_00_04/kernel/freertos/Source/stream_buffer.c.obj
 .comment       0x000000bc       0x44 CMakeFiles/MSPM0G3507_BASIC.elf.dir/D_/tools/ti/mspm0_sdk_2_10_00_04/kernel/freertos/Source/tasks.c.obj
 .comment       0x000000bc       0x44 CMakeFiles/MSPM0G3507_BASIC.elf.dir/D_/tools/ti/mspm0_sdk_2_10_00_04/kernel/freertos/Source/timers.c.obj
 .comment       0x000000bc       0x44 CMakeFiles/MSPM0G3507_BASIC.elf.dir/D_/tools/ti/mspm0_sdk_2_10_00_04/kernel/freertos/Source/portable/MemMang/heap_4.c.obj
 .comment       0x000000bc       0x44 CMakeFiles/MSPM0G3507_BASIC.elf.dir/D_/tools/ti/mspm0_sdk_2_10_00_04/kernel/freertos/Source/portable/GCC/ARM_CM0/port.c.obj
 .comment       0x000000bc       0x44 CMakeFiles/MSPM0G3507_BASIC.elf.dir/D_/tools/ti/mspm0_sdk_2_10_00_04/kernel/freertos/Source/portable/GCC/ARM_CM0/portasm.c.obj
 .comment       0x000000bc       0x44 CMakeFiles/MSPM0G3507_BASIC.elf.dir/D_/tools/ti/mspm0_sdk_2_10_00_04/kernel/freertos/dpl/AppHooks_freertos.c.obj
 .comment       0x000000bc       0x44 CMakeFiles/MSPM0G3507_BASIC.elf.dir/app/freertos_hooks.c.obj
 .comment       0x000000bc       0x44 app/libapp.a(robot.c.obj)
 .comment       0x000000bc       0x44 bsp/libbsp.a(bsp_init.c.obj)
 .comment       0x000000bc       0x44 bsp/libbsp.a(bsp_dwt.c.obj)
 .comment       0x000000bc       0x44 bsp/libbsp.a(bsp_log.c.obj)
 .comment       0x000000bc       0x7a D:/tools/ti/mspm0_sdk_2_10_00_04/source/ti/driverlib/lib/gcc/m0p/mspm0g1x0x_g3x0x/driverlib.a(dl_adc12.o)
 .comment       0x000000bc       0x7a D:/tools/ti/mspm0_sdk_2_10_00_04/source/ti/driverlib/lib/gcc/m0p/mspm0g1x0x_g3x0x/driverlib.a(dl_common.o)
 .comment       0x000000bc       0x7a D:/tools/ti/mspm0_sdk_2_10_00_04/source/ti/driverlib/lib/gcc/m0p/mspm0g1x0x_g3x0x/driverlib.a(dl_i2c.o)
 .comment       0x000000bc       0x7a D:/tools/ti/mspm0_sdk_2_10_00_04/source/ti/driverlib/lib/gcc/m0p/mspm0g1x0x_g3x0x/driverlib.a(dl_spi.o)
 .comment       0x000000bc       0x7a D:/tools/ti/mspm0_sdk_2_10_00_04/source/ti/driverlib/lib/gcc/m0p/mspm0g1x0x_g3x0x/driverlib.a(dl_timer.o)
 .comment       0x000000bc       0x7a D:/tools/ti/mspm0_sdk_2_10_00_04/source/ti/driverlib/lib/gcc/m0p/mspm0g1x0x_g3x0x/driverlib.a(dl_uart.o)
 .comment       0x000000bc       0x44 D:/Program Files/STM32CubeCLT_1.21.0/GNU-tools-for-STM32/bin/../lib/gcc/arm-none-eabi/14.3.1/../../../../arm-none-eabi/lib/thumb/v6-m/nofp\libg_nano.a(libc_a-findfp.o)
 .comment       0x000000bc       0x44 D:/Program Files/STM32CubeCLT_1.21.0/GNU-tools-for-STM32/bin/../lib/gcc/arm-none-eabi/14.3.1/../../../../arm-none-eabi/lib/thumb/v6-m/nofp\libg_nano.a(libc_a-fwalk.o)
 .comment       0x000000bc       0x44 D:/Program Files/STM32CubeCLT_1.21.0/GNU-tools-for-STM32/bin/../lib/gcc/arm-none-eabi/14.3.1/../../../../arm-none-eabi/lib/thumb/v6-m/nofp\libg_nano.a(libc_a-sprintf.o)
 .comment       0x000000bc       0x44 D:/Program Files/STM32CubeCLT_1.21.0/GNU-tools-for-STM32/bin/../lib/gcc/arm-none-eabi/14.3.1/../../../../arm-none-eabi/lib/thumb/v6-m/nofp\libg_nano.a(libc_a-stdio.o)
 .comment       0x000000bc       0x44 D:/Program Files/STM32CubeCLT_1.21.0/GNU-tools-for-STM32/bin/../lib/gcc/arm-none-eabi/14.3.1/../../../../arm-none-eabi/lib/thumb/v6-m/nofp\libg_nano.a(libc_a-vprintf.o)
 .comment       0x000000bc       0x44 D:/Program Files/STM32CubeCLT_1.21.0/GNU-tools-for-STM32/bin/../lib/gcc/arm-none-eabi/14.3.1/../../../../arm-none-eabi/lib/thumb/v6-m/nofp\libg_nano.a(libc_a-memset.o)
 .comment       0x000000bc       0x44 D:/Program Files/STM32CubeCLT_1.21.0/GNU-tools-for-STM32/bin/../lib/gcc/arm-none-eabi/14.3.1/../../../../arm-none-eabi/lib/thumb/v6-m/nofp\libg_nano.a(libc_a-closer.o)
 .comment       0x000000bc       0x44 D:/Program Files/STM32CubeCLT_1.21.0/GNU-tools-for-STM32/bin/../lib/gcc/arm-none-eabi/14.3.1/../../../../arm-none-eabi/lib/thumb/v6-m/nofp\libg_nano.a(libc_a-reent.o)
 .comment       0x000000bc       0x44 D:/Program Files/STM32CubeCLT_1.21.0/GNU-tools-for-STM32/bin/../lib/gcc/arm-none-eabi/14.3.1/../../../../arm-none-eabi/lib/thumb/v6-m/nofp\libg_nano.a(libc_a-impure.o)
 .comment       0x000000bc       0x44 D:/Program Files/STM32CubeCLT_1.21.0/GNU-tools-for-STM32/bin/../lib/gcc/arm-none-eabi/14.3.1/../../../../arm-none-eabi/lib/thumb/v6-m/nofp\libg_nano.a(libc_a-lseekr.o)
 .comment       0x000000bc       0x44 D:/Program Files/STM32CubeCLT_1.21.0/GNU-tools-for-STM32/bin/../lib/gcc/arm-none-eabi/14.3.1/../../../../arm-none-eabi/lib/thumb/v6-m/nofp\libg_nano.a(libc_a-readr.o)
 .comment       0x000000bc       0x44 D:/Program Files/STM32CubeCLT_1.21.0/GNU-tools-for-STM32/bin/../lib/gcc/arm-none-eabi/14.3.1/../../../../arm-none-eabi/lib/thumb/v6-m/nofp\libg_nano.a(libc_a-writer.o)
 .comment       0x000000bc       0x44 D:/Program Files/STM32CubeCLT_1.21.0/GNU-tools-for-STM32/bin/../lib/gcc/arm-none-eabi/14.3.1/../../../../arm-none-eabi/lib/thumb/v6-m/nofp\libg_nano.a(libc_a-errno.o)
 .comment       0x000000bc       0x44 D:/Program Files/STM32CubeCLT_1.21.0/GNU-tools-for-STM32/bin/../lib/gcc/arm-none-eabi/14.3.1/../../../../arm-none-eabi/lib/thumb/v6-m/nofp\libg_nano.a(libc_a-init.o)
 .comment       0x000000bc       0x44 D:/Program Files/STM32CubeCLT_1.21.0/GNU-tools-for-STM32/bin/../lib/gcc/arm-none-eabi/14.3.1/../../../../arm-none-eabi/lib/thumb/v6-m/nofp\libg_nano.a(libc_a-lock.o)
 .comment       0x000000bc       0x44 D:/Program Files/STM32CubeCLT_1.21.0/GNU-tools-for-STM32/bin/../lib/gcc/arm-none-eabi/14.3.1/../../../../arm-none-eabi/lib/thumb/v6-m/nofp\libg_nano.a(libc_a-memcpy-stub.o)
 .comment       0x000000bc       0x44 D:/Program Files/STM32CubeCLT_1.21.0/GNU-tools-for-STM32/bin/../lib/gcc/arm-none-eabi/14.3.1/../../../../arm-none-eabi/lib/thumb/v6-m/nofp\libg_nano.a(libc_a-freer.o)
 .comment       0x000000bc       0x44 D:/Program Files/STM32CubeCLT_1.21.0/GNU-tools-for-STM32/bin/../lib/gcc/arm-none-eabi/14.3.1/../../../../arm-none-eabi/lib/thumb/v6-m/nofp\libg_nano.a(libc_a-mallocr.o)
 .comment       0x000000bc       0x44 D:/Program Files/STM32CubeCLT_1.21.0/GNU-tools-for-STM32/bin/../lib/gcc/arm-none-eabi/14.3.1/../../../../arm-none-eabi/lib/thumb/v6-m/nofp\libg_nano.a(libc_a-mlock.o)
 .comment       0x000000bc       0x44 D:/Program Files/STM32CubeCLT_1.21.0/GNU-tools-for-STM32/bin/../lib/gcc/arm-none-eabi/14.3.1/../../../../arm-none-eabi/lib/thumb/v6-m/nofp\libg_nano.a(libc_a-nano-svfprintf.o)
 .comment       0x000000bc       0x44 D:/Program Files/STM32CubeCLT_1.21.0/GNU-tools-for-STM32/bin/../lib/gcc/arm-none-eabi/14.3.1/../../../../arm-none-eabi/lib/thumb/v6-m/nofp\libg_nano.a(libc_a-nano-vfprintf.o)
 .comment       0x000000bc       0x44 D:/Program Files/STM32CubeCLT_1.21.0/GNU-tools-for-STM32/bin/../lib/gcc/arm-none-eabi/14.3.1/../../../../arm-none-eabi/lib/thumb/v6-m/nofp\libg_nano.a(libc_a-nano-vfprintf_i.o)
 .comment       0x000000bc       0x44 D:/Program Files/STM32CubeCLT_1.21.0/GNU-tools-for-STM32/bin/../lib/gcc/arm-none-eabi/14.3.1/../../../../arm-none-eabi/lib/thumb/v6-m/nofp\libg_nano.a(libc_a-fflush.o)
 .comment       0x000000bc       0x44 D:/Program Files/STM32CubeCLT_1.21.0/GNU-tools-for-STM32/bin/../lib/gcc/arm-none-eabi/14.3.1/../../../../arm-none-eabi/lib/thumb/v6-m/nofp\libg_nano.a(libc_a-fvwrite.o)
 .comment       0x000000bc       0x44 D:/Program Files/STM32CubeCLT_1.21.0/GNU-tools-for-STM32/bin/../lib/gcc/arm-none-eabi/14.3.1/../../../../arm-none-eabi/lib/thumb/v6-m/nofp\libg_nano.a(libc_a-wbuf.o)
 .comment       0x000000bc       0x44 D:/Program Files/STM32CubeCLT_1.21.0/GNU-tools-for-STM32/bin/../lib/gcc/arm-none-eabi/14.3.1/../../../../arm-none-eabi/lib/thumb/v6-m/nofp\libg_nano.a(libc_a-wsetup.o)
 .comment       0x000000bc       0x44 D:/Program Files/STM32CubeCLT_1.21.0/GNU-tools-for-STM32/bin/../lib/gcc/arm-none-eabi/14.3.1/../../../../arm-none-eabi/lib/thumb/v6-m/nofp\libg_nano.a(libc_a-memmove.o)
 .comment       0x000000bc       0x44 D:/Program Files/STM32CubeCLT_1.21.0/GNU-tools-for-STM32/bin/../lib/gcc/arm-none-eabi/14.3.1/../../../../arm-none-eabi/lib/thumb/v6-m/nofp\libg_nano.a(libc_a-sbrkr.o)
 .comment       0x000000bc       0x44 D:/Program Files/STM32CubeCLT_1.21.0/GNU-tools-for-STM32/bin/../lib/gcc/arm-none-eabi/14.3.1/../../../../arm-none-eabi/lib/thumb/v6-m/nofp\libg_nano.a(libc_a-memchr-stub.o)
 .comment       0x000000bc       0x44 D:/Program Files/STM32CubeCLT_1.21.0/GNU-tools-for-STM32/bin/../lib/gcc/arm-none-eabi/14.3.1/../../../../arm-none-eabi/lib/thumb/v6-m/nofp\libg_nano.a(libc_a-reallocr.o)
 .comment       0x000000bc       0x44 D:/Program Files/STM32CubeCLT_1.21.0/GNU-tools-for-STM32/bin/../lib/gcc/arm-none-eabi/14.3.1/../../../../arm-none-eabi/lib/thumb/v6-m/nofp\libg_nano.a(libc_a-makebuf.o)
 .comment       0x000000bc       0x44 D:/Program Files/STM32CubeCLT_1.21.0/GNU-tools-for-STM32/bin/../lib/gcc/arm-none-eabi/14.3.1/../../../../arm-none-eabi/lib/thumb/v6-m/nofp\libg_nano.a(libc_a-fstatr.o)
 .comment       0x000000bc       0x44 D:/Program Files/STM32CubeCLT_1.21.0/GNU-tools-for-STM32/bin/../lib/gcc/arm-none-eabi/14.3.1/../../../../arm-none-eabi/lib/thumb/v6-m/nofp\libg_nano.a(libc_a-isattyr.o)
 .comment       0x000000bc       0x44 D:/Program Files/STM32CubeCLT_1.21.0/GNU-tools-for-STM32/bin/../lib/gcc/arm-none-eabi/14.3.1/../../../../arm-none-eabi/lib/thumb/v6-m/nofp\libg_nano.a(libc_a-msizer.o)

.ARM.attributes
                0x00000000       0x2c
 .ARM.attributes
                0x00000000       0x2c CMakeFiles/MSPM0G3507_BASIC.elf.dir/empty.c.obj
 .ARM.attributes
                0x0000002c       0x2c CMakeFiles/MSPM0G3507_BASIC.elf.dir/app/syscalls_stub.c.obj
 .ARM.attributes
                0x00000058       0x2c CMakeFiles/MSPM0G3507_BASIC.elf.dir/syscfg/ti_msp_dl_config.c.obj
 .ARM.attributes
                0x00000084       0x2c CMakeFiles/MSPM0G3507_BASIC.elf.dir/D_/tools/ti/mspm0_sdk_2_10_00_04/source/ti/devices/msp/m0p/startup_system_files/gcc/startup_mspm0g350x_gcc.c.obj
 .ARM.attributes
                0x000000b0       0x2c CMakeFiles/MSPM0G3507_BASIC.elf.dir/D_/tools/ti/mspm0_sdk_2_10_00_04/kernel/freertos/Source/croutine.c.obj
 .ARM.attributes
                0x000000dc       0x2c CMakeFiles/MSPM0G3507_BASIC.elf.dir/D_/tools/ti/mspm0_sdk_2_10_00_04/kernel/freertos/Source/event_groups.c.obj
 .ARM.attributes
                0x00000108       0x2c CMakeFiles/MSPM0G3507_BASIC.elf.dir/D_/tools/ti/mspm0_sdk_2_10_00_04/kernel/freertos/Source/list.c.obj
 .ARM.attributes
                0x00000134       0x2c CMakeFiles/MSPM0G3507_BASIC.elf.dir/D_/tools/ti/mspm0_sdk_2_10_00_04/kernel/freertos/Source/queue.c.obj
 .ARM.attributes
                0x00000160       0x2c CMakeFiles/MSPM0G3507_BASIC.elf.dir/D_/tools/ti/mspm0_sdk_2_10_00_04/kernel/freertos/Source/stream_buffer.c.obj
 .ARM.attributes
                0x0000018c       0x2c CMakeFiles/MSPM0G3507_BASIC.elf.dir/D_/tools/ti/mspm0_sdk_2_10_00_04/kernel/freertos/Source/tasks.c.obj
 .ARM.attributes
                0x000001b8       0x2c CMakeFiles/MSPM0G3507_BASIC.elf.dir/D_/tools/ti/mspm0_sdk_2_10_00_04/kernel/freertos/Source/timers.c.obj
 .ARM.attributes
                0x000001e4       0x2c CMakeFiles/MSPM0G3507_BASIC.elf.dir/D_/tools/ti/mspm0_sdk_2_10_00_04/kernel/freertos/Source/portable/MemMang/heap_4.c.obj
 .ARM.attributes
                0x00000210       0x2c CMakeFiles/MSPM0G3507_BASIC.elf.dir/D_/tools/ti/mspm0_sdk_2_10_00_04/kernel/freertos/Source/portable/GCC/ARM_CM0/port.c.obj
 .ARM.attributes
                0x0000023c       0x2c CMakeFiles/MSPM0G3507_BASIC.elf.dir/D_/tools/ti/mspm0_sdk_2_10_00_04/kernel/freertos/Source/portable/GCC/ARM_CM0/portasm.c.obj
 .ARM.attributes
                0x00000268       0x2c CMakeFiles/MSPM0G3507_BASIC.elf.dir/D_/tools/ti/mspm0_sdk_2_10_00_04/kernel/freertos/dpl/AppHooks_freertos.c.obj
 .ARM.attributes
                0x00000294       0x2c CMakeFiles/MSPM0G3507_BASIC.elf.dir/app/freertos_hooks.c.obj
 .ARM.attributes
                0x000002c0       0x2c app/libapp.a(robot.c.obj)
 .ARM.attributes
                0x000002ec       0x2c bsp/libbsp.a(bsp_init.c.obj)
 .ARM.attributes
                0x00000318       0x2c bsp/libbsp.a(bsp_dwt.c.obj)
 .ARM.attributes
                0x00000344       0x2c bsp/libbsp.a(bsp_log.c.obj)
 .ARM.attributes
                0x00000370       0x2b D:/tools/ti/mspm0_sdk_2_10_00_04/source/ti/driverlib/lib/gcc/m0p/mspm0g1x0x_g3x0x/driverlib.a(dl_adc12.o)
 .ARM.attributes
                0x0000039b       0x2b D:/tools/ti/mspm0_sdk_2_10_00_04/source/ti/driverlib/lib/gcc/m0p/mspm0g1x0x_g3x0x/driverlib.a(dl_common.o)
 .ARM.attributes
                0x000003c6       0x2b D:/tools/ti/mspm0_sdk_2_10_00_04/source/ti/driverlib/lib/gcc/m0p/mspm0g1x0x_g3x0x/driverlib.a(dl_i2c.o)
 .ARM.attributes
                0x000003f1       0x2b D:/tools/ti/mspm0_sdk_2_10_00_04/source/ti/driverlib/lib/gcc/m0p/mspm0g1x0x_g3x0x/driverlib.a(dl_spi.o)
 .ARM.attributes
                0x0000041c       0x2b D:/tools/ti/mspm0_sdk_2_10_00_04/source/ti/driverlib/lib/gcc/m0p/mspm0g1x0x_g3x0x/driverlib.a(dl_timer.o)
 .ARM.attributes
                0x00000447       0x2b D:/tools/ti/mspm0_sdk_2_10_00_04/source/ti/driverlib/lib/gcc/m0p/mspm0g1x0x_g3x0x/driverlib.a(dl_uart.o)
 .ARM.attributes
                0x00000472       0x1e D:/Program Files/STM32CubeCLT_1.21.0/GNU-tools-for-STM32/bin/../lib/gcc/arm-none-eabi/14.3.1/thumb/v6-m/nofp\libgcc.a(_udivsi3.o)
 .ARM.attributes
                0x00000490       0x1e D:/Program Files/STM32CubeCLT_1.21.0/GNU-tools-for-STM32/bin/../lib/gcc/arm-none-eabi/14.3.1/thumb/v6-m/nofp\libgcc.a(_dvmd_tls.o)
 .ARM.attributes
                0x000004ae       0x1e D:/Program Files/STM32CubeCLT_1.21.0/GNU-tools-for-STM32/bin/../lib/gcc/arm-none-eabi/14.3.1/thumb/v6-m/nofp\libgcc.a(_arm_cmpsf2.o)
 .ARM.attributes
                0x000004cc       0x2c D:/Program Files/STM32CubeCLT_1.21.0/GNU-tools-for-STM32/bin/../lib/gcc/arm-none-eabi/14.3.1/thumb/v6-m/nofp\libgcc.a(_fixunssfsi.o)
 .ARM.attributes
                0x000004f8       0x2c D:/Program Files/STM32CubeCLT_1.21.0/GNU-tools-for-STM32/bin/../lib/gcc/arm-none-eabi/14.3.1/thumb/v6-m/nofp\libgcc.a(_fixunssfdi.o)
 .ARM.attributes
                0x00000524       0x2c D:/Program Files/STM32CubeCLT_1.21.0/GNU-tools-for-STM32/bin/../lib/gcc/arm-none-eabi/14.3.1/thumb/v6-m/nofp\libgcc.a(divsf3.o)
 .ARM.attributes
                0x00000550       0x2c D:/Program Files/STM32CubeCLT_1.21.0/GNU-tools-for-STM32/bin/../lib/gcc/arm-none-eabi/14.3.1/thumb/v6-m/nofp\libgcc.a(eqsf2.o)
 .ARM.attributes
                0x0000057c       0x2c D:/Program Files/STM32CubeCLT_1.21.0/GNU-tools-for-STM32/bin/../lib/gcc/arm-none-eabi/14.3.1/thumb/v6-m/nofp\libgcc.a(gesf2.o)
 .ARM.attributes
                0x000005a8       0x2c D:/Program Files/STM32CubeCLT_1.21.0/GNU-tools-for-STM32/bin/../lib/gcc/arm-none-eabi/14.3.1/thumb/v6-m/nofp\libgcc.a(lesf2.o)
 .ARM.attributes
                0x000005d4       0x2c D:/Program Files/STM32CubeCLT_1.21.0/GNU-tools-for-STM32/bin/../lib/gcc/arm-none-eabi/14.3.1/thumb/v6-m/nofp\libgcc.a(mulsf3.o)
 .ARM.attributes
                0x00000600       0x2c D:/Program Files/STM32CubeCLT_1.21.0/GNU-tools-for-STM32/bin/../lib/gcc/arm-none-eabi/14.3.1/thumb/v6-m/nofp\libgcc.a(subsf3.o)
 .ARM.attributes
                0x0000062c       0x2c D:/Program Files/STM32CubeCLT_1.21.0/GNU-tools-for-STM32/bin/../lib/gcc/arm-none-eabi/14.3.1/thumb/v6-m/nofp\libgcc.a(fixsfsi.o)
 .ARM.attributes
                0x00000658       0x2c D:/Program Files/STM32CubeCLT_1.21.0/GNU-tools-for-STM32/bin/../lib/gcc/arm-none-eabi/14.3.1/thumb/v6-m/nofp\libgcc.a(floatsisf.o)
 .ARM.attributes
                0x00000684       0x2c D:/Program Files/STM32CubeCLT_1.21.0/GNU-tools-for-STM32/bin/../lib/gcc/arm-none-eabi/14.3.1/thumb/v6-m/nofp\libgcc.a(floatunsisf.o)
 .ARM.attributes
                0x000006b0       0x2c D:/Program Files/STM32CubeCLT_1.21.0/GNU-tools-for-STM32/bin/../lib/gcc/arm-none-eabi/14.3.1/thumb/v6-m/nofp\libgcc.a(divdf3.o)
 .ARM.attributes
                0x000006dc       0x2c D:/Program Files/STM32CubeCLT_1.21.0/GNU-tools-for-STM32/bin/../lib/gcc/arm-none-eabi/14.3.1/thumb/v6-m/nofp\libgcc.a(muldf3.o)
 .ARM.attributes
                0x00000708       0x2c D:/Program Files/STM32CubeCLT_1.21.0/GNU-tools-for-STM32/bin/../lib/gcc/arm-none-eabi/14.3.1/thumb/v6-m/nofp\libgcc.a(subdf3.o)
 .ARM.attributes
                0x00000734       0x2c D:/Program Files/STM32CubeCLT_1.21.0/GNU-tools-for-STM32/bin/../lib/gcc/arm-none-eabi/14.3.1/thumb/v6-m/nofp\libgcc.a(floatunsidf.o)
 .ARM.attributes
                0x00000760       0x2c D:/Program Files/STM32CubeCLT_1.21.0/GNU-tools-for-STM32/bin/../lib/gcc/arm-none-eabi/14.3.1/thumb/v6-m/nofp\libgcc.a(extendsfdf2.o)
 .ARM.attributes
                0x0000078c       0x1e D:/Program Files/STM32CubeCLT_1.21.0/GNU-tools-for-STM32/bin/../lib/gcc/arm-none-eabi/14.3.1/thumb/v6-m/nofp\libgcc.a(_clzsi2.o)
 .ARM.attributes
                0x000007aa       0x2c D:/Program Files/STM32CubeCLT_1.21.0/GNU-tools-for-STM32/bin/../lib/gcc/arm-none-eabi/14.3.1/thumb/v6-m/nofp\libgcc.a(_fixunsdfsi.o)
 .ARM.attributes
                0x000007d6       0x2c D:/Program Files/STM32CubeCLT_1.21.0/GNU-tools-for-STM32/bin/../lib/gcc/arm-none-eabi/14.3.1/thumb/v6-m/nofp\libgcc.a(fixdfsi.o)
 .ARM.attributes
                0x00000802       0x1e D:/Program Files/STM32CubeCLT_1.21.0/GNU-tools-for-STM32/bin/../lib/gcc/arm-none-eabi/14.3.1/thumb/v6-m/nofp\libgcc.a(_arm_cmpdf2.o)
 .ARM.attributes
                0x00000820       0x2c D:/Program Files/STM32CubeCLT_1.21.0/GNU-tools-for-STM32/bin/../lib/gcc/arm-none-eabi/14.3.1/thumb/v6-m/nofp\libgcc.a(eqdf2.o)
 .ARM.attributes
                0x0000084c       0x2c D:/Program Files/STM32CubeCLT_1.21.0/GNU-tools-for-STM32/bin/../lib/gcc/arm-none-eabi/14.3.1/thumb/v6-m/nofp\libgcc.a(gedf2.o)
 .ARM.attributes
                0x00000878       0x2c D:/Program Files/STM32CubeCLT_1.21.0/GNU-tools-for-STM32/bin/../lib/gcc/arm-none-eabi/14.3.1/thumb/v6-m/nofp\libgcc.a(ledf2.o)
 .ARM.attributes
                0x000008a4       0x2c D:/Program Files/STM32CubeCLT_1.21.0/GNU-tools-for-STM32/bin/../lib/gcc/arm-none-eabi/14.3.1/../../../../arm-none-eabi/lib/thumb/v6-m/nofp\libg_nano.a(libc_a-findfp.o)
 .ARM.attributes
                0x000008d0       0x2c D:/Program Files/STM32CubeCLT_1.21.0/GNU-tools-for-STM32/bin/../lib/gcc/arm-none-eabi/14.3.1/../../../../arm-none-eabi/lib/thumb/v6-m/nofp\libg_nano.a(libc_a-fwalk.o)
 .ARM.attributes
                0x000008fc       0x2c D:/Program Files/STM32CubeCLT_1.21.0/GNU-tools-for-STM32/bin/../lib/gcc/arm-none-eabi/14.3.1/../../../../arm-none-eabi/lib/thumb/v6-m/nofp\libg_nano.a(libc_a-sprintf.o)
 .ARM.attributes
                0x00000928       0x2c D:/Program Files/STM32CubeCLT_1.21.0/GNU-tools-for-STM32/bin/../lib/gcc/arm-none-eabi/14.3.1/../../../../arm-none-eabi/lib/thumb/v6-m/nofp\libg_nano.a(libc_a-stdio.o)
 .ARM.attributes
                0x00000954       0x2c D:/Program Files/STM32CubeCLT_1.21.0/GNU-tools-for-STM32/bin/../lib/gcc/arm-none-eabi/14.3.1/../../../../arm-none-eabi/lib/thumb/v6-m/nofp\libg_nano.a(libc_a-vprintf.o)
 .ARM.attributes
                0x00000980       0x2c D:/Program Files/STM32CubeCLT_1.21.0/GNU-tools-for-STM32/bin/../lib/gcc/arm-none-eabi/14.3.1/../../../../arm-none-eabi/lib/thumb/v6-m/nofp\libg_nano.a(libc_a-memset.o)
 .ARM.attributes
                0x000009ac       0x2c D:/Program Files/STM32CubeCLT_1.21.0/GNU-tools-for-STM32/bin/../lib/gcc/arm-none-eabi/14.3.1/../../../../arm-none-eabi/lib/thumb/v6-m/nofp\libg_nano.a(libc_a-closer.o)
 .ARM.attributes
                0x000009d8       0x2c D:/Program Files/STM32CubeCLT_1.21.0/GNU-tools-for-STM32/bin/../lib/gcc/arm-none-eabi/14.3.1/../../../../arm-none-eabi/lib/thumb/v6-m/nofp\libg_nano.a(libc_a-reent.o)
 .ARM.attributes
                0x00000a04       0x2c D:/Program Files/STM32CubeCLT_1.21.0/GNU-tools-for-STM32/bin/../lib/gcc/arm-none-eabi/14.3.1/../../../../arm-none-eabi/lib/thumb/v6-m/nofp\libg_nano.a(libc_a-impure.o)
 .ARM.attributes
                0x00000a30       0x2c D:/Program Files/STM32CubeCLT_1.21.0/GNU-tools-for-STM32/bin/../lib/gcc/arm-none-eabi/14.3.1/../../../../arm-none-eabi/lib/thumb/v6-m/nofp\libg_nano.a(libc_a-lseekr.o)
 .ARM.attributes
                0x00000a5c       0x2c D:/Program Files/STM32CubeCLT_1.21.0/GNU-tools-for-STM32/bin/../lib/gcc/arm-none-eabi/14.3.1/../../../../arm-none-eabi/lib/thumb/v6-m/nofp\libg_nano.a(libc_a-readr.o)
 .ARM.attributes
                0x00000a88       0x2c D:/Program Files/STM32CubeCLT_1.21.0/GNU-tools-for-STM32/bin/../lib/gcc/arm-none-eabi/14.3.1/../../../../arm-none-eabi/lib/thumb/v6-m/nofp\libg_nano.a(libc_a-writer.o)
 .ARM.attributes
                0x00000ab4       0x2c D:/Program Files/STM32CubeCLT_1.21.0/GNU-tools-for-STM32/bin/../lib/gcc/arm-none-eabi/14.3.1/../../../../arm-none-eabi/lib/thumb/v6-m/nofp\libg_nano.a(libc_a-errno.o)
 .ARM.attributes
                0x00000ae0       0x2c D:/Program Files/STM32CubeCLT_1.21.0/GNU-tools-for-STM32/bin/../lib/gcc/arm-none-eabi/14.3.1/../../../../arm-none-eabi/lib/thumb/v6-m/nofp\libg_nano.a(libc_a-init.o)
 .ARM.attributes
                0x00000b0c       0x2c D:/Program Files/STM32CubeCLT_1.21.0/GNU-tools-for-STM32/bin/../lib/gcc/arm-none-eabi/14.3.1/../../../../arm-none-eabi/lib/thumb/v6-m/nofp\libg_nano.a(libc_a-lock.o)
 .ARM.attributes
                0x00000b38       0x2c D:/Program Files/STM32CubeCLT_1.21.0/GNU-tools-for-STM32/bin/../lib/gcc/arm-none-eabi/14.3.1/../../../../arm-none-eabi/lib/thumb/v6-m/nofp\libg_nano.a(libc_a-memcpy-stub.o)
 .ARM.attributes
                0x00000b64       0x2c D:/Program Files/STM32CubeCLT_1.21.0/GNU-tools-for-STM32/bin/../lib/gcc/arm-none-eabi/14.3.1/../../../../arm-none-eabi/lib/thumb/v6-m/nofp\libg_nano.a(libc_a-freer.o)
 .ARM.attributes
                0x00000b90       0x2c D:/Program Files/STM32CubeCLT_1.21.0/GNU-tools-for-STM32/bin/../lib/gcc/arm-none-eabi/14.3.1/../../../../arm-none-eabi/lib/thumb/v6-m/nofp\libg_nano.a(libc_a-mallocr.o)
 .ARM.attributes
                0x00000bbc       0x2c D:/Program Files/STM32CubeCLT_1.21.0/GNU-tools-for-STM32/bin/../lib/gcc/arm-none-eabi/14.3.1/../../../../arm-none-eabi/lib/thumb/v6-m/nofp\libg_nano.a(libc_a-mlock.o)
 .ARM.attributes
                0x00000be8       0x2c D:/Program Files/STM32CubeCLT_1.21.0/GNU-tools-for-STM32/bin/../lib/gcc/arm-none-eabi/14.3.1/../../../../arm-none-eabi/lib/thumb/v6-m/nofp\libg_nano.a(libc_a-nano-svfprintf.o)
 .ARM.attributes
                0x00000c14       0x2c D:/Program Files/STM32CubeCLT_1.21.0/GNU-tools-for-STM32/bin/../lib/gcc/arm-none-eabi/14.3.1/../../../../arm-none-eabi/lib/thumb/v6-m/nofp\libg_nano.a(libc_a-nano-vfprintf.o)
 .ARM.attributes
                0x00000c40       0x2c D:/Program Files/STM32CubeCLT_1.21.0/GNU-tools-for-STM32/bin/../lib/gcc/arm-none-eabi/14.3.1/../../../../arm-none-eabi/lib/thumb/v6-m/nofp\libg_nano.a(libc_a-nano-vfprintf_i.o)
 .ARM.attributes
                0x00000c6c       0x2c D:/Program Files/STM32CubeCLT_1.21.0/GNU-tools-for-STM32/bin/../lib/gcc/arm-none-eabi/14.3.1/../../../../arm-none-eabi/lib/thumb/v6-m/nofp\libg_nano.a(libc_a-fflush.o)
 .ARM.attributes
                0x00000c98       0x2c D:/Program Files/STM32CubeCLT_1.21.0/GNU-tools-for-STM32/bin/../lib/gcc/arm-none-eabi/14.3.1/../../../../arm-none-eabi/lib/thumb/v6-m/nofp\libg_nano.a(libc_a-fvwrite.o)
 .ARM.attributes
                0x00000cc4       0x2c D:/Program Files/STM32CubeCLT_1.21.0/GNU-tools-for-STM32/bin/../lib/gcc/arm-none-eabi/14.3.1/../../../../arm-none-eabi/lib/thumb/v6-m/nofp\libg_nano.a(libc_a-wbuf.o)
 .ARM.attributes
                0x00000cf0       0x2c D:/Program Files/STM32CubeCLT_1.21.0/GNU-tools-for-STM32/bin/../lib/gcc/arm-none-eabi/14.3.1/../../../../arm-none-eabi/lib/thumb/v6-m/nofp\libg_nano.a(libc_a-wsetup.o)
 .ARM.attributes
                0x00000d1c       0x2c D:/Program Files/STM32CubeCLT_1.21.0/GNU-tools-for-STM32/bin/../lib/gcc/arm-none-eabi/14.3.1/../../../../arm-none-eabi/lib/thumb/v6-m/nofp\libg_nano.a(libc_a-memmove.o)
 .ARM.attributes
                0x00000d48       0x2c D:/Program Files/STM32CubeCLT_1.21.0/GNU-tools-for-STM32/bin/../lib/gcc/arm-none-eabi/14.3.1/../../../../arm-none-eabi/lib/thumb/v6-m/nofp\libg_nano.a(libc_a-sbrkr.o)
 .ARM.attributes
                0x00000d74       0x2c D:/Program Files/STM32CubeCLT_1.21.0/GNU-tools-for-STM32/bin/../lib/gcc/arm-none-eabi/14.3.1/../../../../arm-none-eabi/lib/thumb/v6-m/nofp\libg_nano.a(libc_a-memchr-stub.o)
 .ARM.attributes
                0x00000da0       0x2c D:/Program Files/STM32CubeCLT_1.21.0/GNU-tools-for-STM32/bin/../lib/gcc/arm-none-eabi/14.3.1/../../../../arm-none-eabi/lib/thumb/v6-m/nofp\libg_nano.a(libc_a-reallocr.o)
 .ARM.attributes
                0x00000dcc       0x2c D:/Program Files/STM32CubeCLT_1.21.0/GNU-tools-for-STM32/bin/../lib/gcc/arm-none-eabi/14.3.1/../../../../arm-none-eabi/lib/thumb/v6-m/nofp\libg_nano.a(libc_a-makebuf.o)
 .ARM.attributes
                0x00000df8       0x2c D:/Program Files/STM32CubeCLT_1.21.0/GNU-tools-for-STM32/bin/../lib/gcc/arm-none-eabi/14.3.1/../../../../arm-none-eabi/lib/thumb/v6-m/nofp\libg_nano.a(libc_a-fstatr.o)
 .ARM.attributes
                0x00000e24       0x2c D:/Program Files/STM32CubeCLT_1.21.0/GNU-tools-for-STM32/bin/../lib/gcc/arm-none-eabi/14.3.1/../../../../arm-none-eabi/lib/thumb/v6-m/nofp\libg_nano.a(libc_a-isattyr.o)
 .ARM.attributes
                0x00000e50       0x2c D:/Program Files/STM32CubeCLT_1.21.0/GNU-tools-for-STM32/bin/../lib/gcc/arm-none-eabi/14.3.1/../../../../arm-none-eabi/lib/thumb/v6-m/nofp\libg_nano.a(libc_a-msizer.o)
 .ARM.attributes
                0x00000e7c       0x1e D:/Program Files/STM32CubeCLT_1.21.0/GNU-tools-for-STM32/bin/../lib/gcc/arm-none-eabi/14.3.1/thumb/v6-m/nofp\libgcc.a(_thumb1_case_shi.o)
 .ARM.attributes
                0x00000e9a       0x1e D:/Program Files/STM32CubeCLT_1.21.0/GNU-tools-for-STM32/bin/../lib/gcc/arm-none-eabi/14.3.1/thumb/v6-m/nofp\libgcc.a(_divsi3.o)
 .ARM.attributes
                0x00000eb8       0x2c D:/Program Files/STM32CubeCLT_1.21.0/GNU-tools-for-STM32/bin/../lib/gcc/arm-none-eabi/14.3.1/../../../../arm-none-eabi/lib/thumb/v6-m/nofp\libnosys.a(sbrk.o)

.debug_frame    0x00000000     0x3050
 .debug_frame   0x00000000       0x28 CMakeFiles/MSPM0G3507_BASIC.elf.dir/empty.c.obj
 .debug_frame   0x00000028       0x88 CMakeFiles/MSPM0G3507_BASIC.elf.dir/app/syscalls_stub.c.obj
 .debug_frame   0x000000b0      0x1c4 CMakeFiles/MSPM0G3507_BASIC.elf.dir/syscfg/ti_msp_dl_config.c.obj
 .debug_frame   0x00000274       0x48 CMakeFiles/MSPM0G3507_BASIC.elf.dir/D_/tools/ti/mspm0_sdk_2_10_00_04/source/ti/devices/msp/m0p/startup_system_files/gcc/startup_mspm0g350x_gcc.c.obj
 .debug_frame   0x000002bc      0x184 CMakeFiles/MSPM0G3507_BASIC.elf.dir/D_/tools/ti/mspm0_sdk_2_10_00_04/kernel/freertos/Source/event_groups.c.obj
 .debug_frame   0x00000440       0x6c CMakeFiles/MSPM0G3507_BASIC.elf.dir/D_/tools/ti/mspm0_sdk_2_10_00_04/kernel/freertos/Source/list.c.obj
 .debug_frame   0x000004ac      0x37c CMakeFiles/MSPM0G3507_BASIC.elf.dir/D_/tools/ti/mspm0_sdk_2_10_00_04/kernel/freertos/Source/queue.c.obj
 .debug_frame   0x00000828      0x318 CMakeFiles/MSPM0G3507_BASIC.elf.dir/D_/tools/ti/mspm0_sdk_2_10_00_04/kernel/freertos/Source/stream_buffer.c.obj
 .debug_frame   0x00000b40      0x74c CMakeFiles/MSPM0G3507_BASIC.elf.dir/D_/tools/ti/mspm0_sdk_2_10_00_04/kernel/freertos/Source/tasks.c.obj
 .debug_frame   0x0000128c      0x238 CMakeFiles/MSPM0G3507_BASIC.elf.dir/D_/tools/ti/mspm0_sdk_2_10_00_04/kernel/freertos/Source/timers.c.obj
 .debug_frame   0x000014c4       0xe0 CMakeFiles/MSPM0G3507_BASIC.elf.dir/D_/tools/ti/mspm0_sdk_2_10_00_04/kernel/freertos/Source/portable/MemMang/heap_4.c.obj
 .debug_frame   0x000015a4      0x108 CMakeFiles/MSPM0G3507_BASIC.elf.dir/D_/tools/ti/mspm0_sdk_2_10_00_04/kernel/freertos/Source/portable/GCC/ARM_CM0/port.c.obj
 .debug_frame   0x000016ac       0xa0 CMakeFiles/MSPM0G3507_BASIC.elf.dir/D_/tools/ti/mspm0_sdk_2_10_00_04/kernel/freertos/Source/portable/GCC/ARM_CM0/portasm.c.obj
 .debug_frame   0x0000174c       0x20 CMakeFiles/MSPM0G3507_BASIC.elf.dir/D_/tools/ti/mspm0_sdk_2_10_00_04/kernel/freertos/dpl/AppHooks_freertos.c.obj
 .debug_frame   0x0000176c       0x30 CMakeFiles/MSPM0G3507_BASIC.elf.dir/app/freertos_hooks.c.obj
 .debug_frame   0x0000179c       0x94 app/libapp.a(robot.c.obj)
 .debug_frame   0x00001830       0x28 bsp/libbsp.a(bsp_init.c.obj)
 .debug_frame   0x00001858       0xc8 bsp/libbsp.a(bsp_dwt.c.obj)
 .debug_frame   0x00001920       0x5c bsp/libbsp.a(bsp_log.c.obj)
 .debug_frame   0x0000197c       0x44 D:/tools/ti/mspm0_sdk_2_10_00_04/source/ti/driverlib/lib/gcc/m0p/mspm0g1x0x_g3x0x/driverlib.a(dl_adc12.o)
 .debug_frame   0x000019c0       0x20 D:/tools/ti/mspm0_sdk_2_10_00_04/source/ti/driverlib/lib/gcc/m0p/mspm0g1x0x_g3x0x/driverlib.a(dl_common.o)
 .debug_frame   0x000019e0      0x124 D:/tools/ti/mspm0_sdk_2_10_00_04/source/ti/driverlib/lib/gcc/m0p/mspm0g1x0x_g3x0x/driverlib.a(dl_i2c.o)
 .debug_frame   0x00001b04      0x220 D:/tools/ti/mspm0_sdk_2_10_00_04/source/ti/driverlib/lib/gcc/m0p/mspm0g1x0x_g3x0x/driverlib.a(dl_spi.o)
 .debug_frame   0x00001d24      0x3d4 D:/tools/ti/mspm0_sdk_2_10_00_04/source/ti/driverlib/lib/gcc/m0p/mspm0g1x0x_g3x0x/driverlib.a(dl_timer.o)
 .debug_frame   0x000020f8      0x1a4 D:/tools/ti/mspm0_sdk_2_10_00_04/source/ti/driverlib/lib/gcc/m0p/mspm0g1x0x_g3x0x/driverlib.a(dl_uart.o)
 .debug_frame   0x0000229c       0x20 D:/Program Files/STM32CubeCLT_1.21.0/GNU-tools-for-STM32/bin/../lib/gcc/arm-none-eabi/14.3.1/thumb/v6-m/nofp\libgcc.a(_udivsi3.o)
 .debug_frame   0x000022bc       0x28 D:/Program Files/STM32CubeCLT_1.21.0/GNU-tools-for-STM32/bin/../lib/gcc/arm-none-eabi/14.3.1/thumb/v6-m/nofp\libgcc.a(_fixunssfsi.o)
 .debug_frame   0x000022e4       0x2c D:/Program Files/STM32CubeCLT_1.21.0/GNU-tools-for-STM32/bin/../lib/gcc/arm-none-eabi/14.3.1/thumb/v6-m/nofp\libgcc.a(_fixunssfdi.o)
 .debug_frame   0x00002310       0x38 D:/Program Files/STM32CubeCLT_1.21.0/GNU-tools-for-STM32/bin/../lib/gcc/arm-none-eabi/14.3.1/thumb/v6-m/nofp\libgcc.a(divsf3.o)
 .debug_frame   0x00002348       0x2c D:/Program Files/STM32CubeCLT_1.21.0/GNU-tools-for-STM32/bin/../lib/gcc/arm-none-eabi/14.3.1/thumb/v6-m/nofp\libgcc.a(eqsf2.o)
 .debug_frame   0x00002374       0x2c D:/Program Files/STM32CubeCLT_1.21.0/GNU-tools-for-STM32/bin/../lib/gcc/arm-none-eabi/14.3.1/thumb/v6-m/nofp\libgcc.a(gesf2.o)
 .debug_frame   0x000023a0       0x2c D:/Program Files/STM32CubeCLT_1.21.0/GNU-tools-for-STM32/bin/../lib/gcc/arm-none-eabi/14.3.1/thumb/v6-m/nofp\libgcc.a(lesf2.o)
 .debug_frame   0x000023cc       0x38 D:/Program Files/STM32CubeCLT_1.21.0/GNU-tools-for-STM32/bin/../lib/gcc/arm-none-eabi/14.3.1/thumb/v6-m/nofp\libgcc.a(mulsf3.o)
 .debug_frame   0x00002404       0x38 D:/Program Files/STM32CubeCLT_1.21.0/GNU-tools-for-STM32/bin/../lib/gcc/arm-none-eabi/14.3.1/thumb/v6-m/nofp\libgcc.a(subsf3.o)
 .debug_frame   0x0000243c       0x20 D:/Program Files/STM32CubeCLT_1.21.0/GNU-tools-for-STM32/bin/../lib/gcc/arm-none-eabi/14.3.1/thumb/v6-m/nofp\libgcc.a(fixsfsi.o)
 .debug_frame   0x0000245c       0x2c D:/Program Files/STM32CubeCLT_1.21.0/GNU-tools-for-STM32/bin/../lib/gcc/arm-none-eabi/14.3.1/thumb/v6-m/nofp\libgcc.a(floatsisf.o)
 .debug_frame   0x00002488       0x28 D:/Program Files/STM32CubeCLT_1.21.0/GNU-tools-for-STM32/bin/../lib/gcc/arm-none-eabi/14.3.1/thumb/v6-m/nofp\libgcc.a(floatunsisf.o)
 .debug_frame   0x000024b0       0x3c D:/Program Files/STM32CubeCLT_1.21.0/GNU-tools-for-STM32/bin/../lib/gcc/arm-none-eabi/14.3.1/thumb/v6-m/nofp\libgcc.a(divdf3.o)
 .debug_frame   0x000024ec       0x3c D:/Program Files/STM32CubeCLT_1.21.0/GNU-tools-for-STM32/bin/../lib/gcc/arm-none-eabi/14.3.1/thumb/v6-m/nofp\libgcc.a(muldf3.o)
 .debug_frame   0x00002528       0x3c D:/Program Files/STM32CubeCLT_1.21.0/GNU-tools-for-STM32/bin/../lib/gcc/arm-none-eabi/14.3.1/thumb/v6-m/nofp\libgcc.a(subdf3.o)
 .debug_frame   0x00002564       0x28 D:/Program Files/STM32CubeCLT_1.21.0/GNU-tools-for-STM32/bin/../lib/gcc/arm-none-eabi/14.3.1/thumb/v6-m/nofp\libgcc.a(floatunsidf.o)
 .debug_frame   0x0000258c       0x2c D:/Program Files/STM32CubeCLT_1.21.0/GNU-tools-for-STM32/bin/../lib/gcc/arm-none-eabi/14.3.1/thumb/v6-m/nofp\libgcc.a(extendsfdf2.o)
 .debug_frame   0x000025b8       0x2c D:/Program Files/STM32CubeCLT_1.21.0/GNU-tools-for-STM32/bin/../lib/gcc/arm-none-eabi/14.3.1/thumb/v6-m/nofp\libgcc.a(_fixunsdfsi.o)
 .debug_frame   0x000025e4       0x30 D:/Program Files/STM32CubeCLT_1.21.0/GNU-tools-for-STM32/bin/../lib/gcc/arm-none-eabi/14.3.1/thumb/v6-m/nofp\libgcc.a(fixdfsi.o)
 .debug_frame   0x00002614       0x38 D:/Program Files/STM32CubeCLT_1.21.0/GNU-tools-for-STM32/bin/../lib/gcc/arm-none-eabi/14.3.1/thumb/v6-m/nofp\libgcc.a(eqdf2.o)
 .debug_frame   0x0000264c       0x3c D:/Program Files/STM32CubeCLT_1.21.0/GNU-tools-for-STM32/bin/../lib/gcc/arm-none-eabi/14.3.1/thumb/v6-m/nofp\libgcc.a(gedf2.o)
 .debug_frame   0x00002688       0x3c D:/Program Files/STM32CubeCLT_1.21.0/GNU-tools-for-STM32/bin/../lib/gcc/arm-none-eabi/14.3.1/thumb/v6-m/nofp\libgcc.a(ledf2.o)
 .debug_frame   0x000026c4      0x138 D:/Program Files/STM32CubeCLT_1.21.0/GNU-tools-for-STM32/bin/../lib/gcc/arm-none-eabi/14.3.1/../../../../arm-none-eabi/lib/thumb/v6-m/nofp\libg_nano.a(libc_a-findfp.o)
 .debug_frame   0x000027fc       0x34 D:/Program Files/STM32CubeCLT_1.21.0/GNU-tools-for-STM32/bin/../lib/gcc/arm-none-eabi/14.3.1/../../../../arm-none-eabi/lib/thumb/v6-m/nofp\libg_nano.a(libc_a-fwalk.o)
 .debug_frame   0x00002830       0x50 D:/Program Files/STM32CubeCLT_1.21.0/GNU-tools-for-STM32/bin/../lib/gcc/arm-none-eabi/14.3.1/../../../../arm-none-eabi/lib/thumb/v6-m/nofp\libg_nano.a(libc_a-sprintf.o)
 .debug_frame   0x00002880       0x90 D:/Program Files/STM32CubeCLT_1.21.0/GNU-tools-for-STM32/bin/../lib/gcc/arm-none-eabi/14.3.1/../../../../arm-none-eabi/lib/thumb/v6-m/nofp\libg_nano.a(libc_a-stdio.o)
 .debug_frame   0x00002910       0x40 D:/Program Files/STM32CubeCLT_1.21.0/GNU-tools-for-STM32/bin/../lib/gcc/arm-none-eabi/14.3.1/../../../../arm-none-eabi/lib/thumb/v6-m/nofp\libg_nano.a(libc_a-vprintf.o)
 .debug_frame   0x00002950       0x20 D:/Program Files/STM32CubeCLT_1.21.0/GNU-tools-for-STM32/bin/../lib/gcc/arm-none-eabi/14.3.1/../../../../arm-none-eabi/lib/thumb/v6-m/nofp\libg_nano.a(libc_a-memset.o)
 .debug_frame   0x00002970       0x2c D:/Program Files/STM32CubeCLT_1.21.0/GNU-tools-for-STM32/bin/../lib/gcc/arm-none-eabi/14.3.1/../../../../arm-none-eabi/lib/thumb/v6-m/nofp\libg_nano.a(libc_a-closer.o)
 .debug_frame   0x0000299c       0x2c D:/Program Files/STM32CubeCLT_1.21.0/GNU-tools-for-STM32/bin/../lib/gcc/arm-none-eabi/14.3.1/../../../../arm-none-eabi/lib/thumb/v6-m/nofp\libg_nano.a(libc_a-reent.o)
 .debug_frame   0x000029c8       0x2c D:/Program Files/STM32CubeCLT_1.21.0/GNU-tools-for-STM32/bin/../lib/gcc/arm-none-eabi/14.3.1/../../../../arm-none-eabi/lib/thumb/v6-m/nofp\libg_nano.a(libc_a-lseekr.o)
 .debug_frame   0x000029f4       0x2c D:/Program Files/STM32CubeCLT_1.21.0/GNU-tools-for-STM32/bin/../lib/gcc/arm-none-eabi/14.3.1/../../../../arm-none-eabi/lib/thumb/v6-m/nofp\libg_nano.a(libc_a-readr.o)
 .debug_frame   0x00002a20       0x2c D:/Program Files/STM32CubeCLT_1.21.0/GNU-tools-for-STM32/bin/../lib/gcc/arm-none-eabi/14.3.1/../../../../arm-none-eabi/lib/thumb/v6-m/nofp\libg_nano.a(libc_a-writer.o)
 .debug_frame   0x00002a4c       0x20 D:/Program Files/STM32CubeCLT_1.21.0/GNU-tools-for-STM32/bin/../lib/gcc/arm-none-eabi/14.3.1/../../../../arm-none-eabi/lib/thumb/v6-m/nofp\libg_nano.a(libc_a-errno.o)
 .debug_frame   0x00002a6c       0x2c D:/Program Files/STM32CubeCLT_1.21.0/GNU-tools-for-STM32/bin/../lib/gcc/arm-none-eabi/14.3.1/../../../../arm-none-eabi/lib/thumb/v6-m/nofp\libg_nano.a(libc_a-init.o)
 .debug_frame   0x00002a98       0xb0 D:/Program Files/STM32CubeCLT_1.21.0/GNU-tools-for-STM32/bin/../lib/gcc/arm-none-eabi/14.3.1/../../../../arm-none-eabi/lib/thumb/v6-m/nofp\libg_nano.a(libc_a-lock.o)
 .debug_frame   0x00002b48       0x28 D:/Program Files/STM32CubeCLT_1.21.0/GNU-tools-for-STM32/bin/../lib/gcc/arm-none-eabi/14.3.1/../../../../arm-none-eabi/lib/thumb/v6-m/nofp\libg_nano.a(libc_a-memcpy-stub.o)
 .debug_frame   0x00002b70       0x2c D:/Program Files/STM32CubeCLT_1.21.0/GNU-tools-for-STM32/bin/../lib/gcc/arm-none-eabi/14.3.1/../../../../arm-none-eabi/lib/thumb/v6-m/nofp\libg_nano.a(libc_a-freer.o)
 .debug_frame   0x00002b9c       0x50 D:/Program Files/STM32CubeCLT_1.21.0/GNU-tools-for-STM32/bin/../lib/gcc/arm-none-eabi/14.3.1/../../../../arm-none-eabi/lib/thumb/v6-m/nofp\libg_nano.a(libc_a-mallocr.o)
 .debug_frame   0x00002bec       0x40 D:/Program Files/STM32CubeCLT_1.21.0/GNU-tools-for-STM32/bin/../lib/gcc/arm-none-eabi/14.3.1/../../../../arm-none-eabi/lib/thumb/v6-m/nofp\libg_nano.a(libc_a-mlock.o)
 .debug_frame   0x00002c2c       0x74 D:/Program Files/STM32CubeCLT_1.21.0/GNU-tools-for-STM32/bin/../lib/gcc/arm-none-eabi/14.3.1/../../../../arm-none-eabi/lib/thumb/v6-m/nofp\libg_nano.a(libc_a-nano-svfprintf.o)
 .debug_frame   0x00002ca0       0x9c D:/Program Files/STM32CubeCLT_1.21.0/GNU-tools-for-STM32/bin/../lib/gcc/arm-none-eabi/14.3.1/../../../../arm-none-eabi/lib/thumb/v6-m/nofp\libg_nano.a(libc_a-nano-vfprintf.o)
 .debug_frame   0x00002d3c       0x54 D:/Program Files/STM32CubeCLT_1.21.0/GNU-tools-for-STM32/bin/../lib/gcc/arm-none-eabi/14.3.1/../../../../arm-none-eabi/lib/thumb/v6-m/nofp\libg_nano.a(libc_a-nano-vfprintf_i.o)
 .debug_frame   0x00002d90       0x68 D:/Program Files/STM32CubeCLT_1.21.0/GNU-tools-for-STM32/bin/../lib/gcc/arm-none-eabi/14.3.1/../../../../arm-none-eabi/lib/thumb/v6-m/nofp\libg_nano.a(libc_a-fflush.o)
 .debug_frame   0x00002df8       0x30 D:/Program Files/STM32CubeCLT_1.21.0/GNU-tools-for-STM32/bin/../lib/gcc/arm-none-eabi/14.3.1/../../../../arm-none-eabi/lib/thumb/v6-m/nofp\libg_nano.a(libc_a-fvwrite.o)
 .debug_frame   0x00002e28       0x48 D:/Program Files/STM32CubeCLT_1.21.0/GNU-tools-for-STM32/bin/../lib/gcc/arm-none-eabi/14.3.1/../../../../arm-none-eabi/lib/thumb/v6-m/nofp\libg_nano.a(libc_a-wbuf.o)
 .debug_frame   0x00002e70       0x2c D:/Program Files/STM32CubeCLT_1.21.0/GNU-tools-for-STM32/bin/../lib/gcc/arm-none-eabi/14.3.1/../../../../arm-none-eabi/lib/thumb/v6-m/nofp\libg_nano.a(libc_a-wsetup.o)
 .debug_frame   0x00002e9c       0x28 D:/Program Files/STM32CubeCLT_1.21.0/GNU-tools-for-STM32/bin/../lib/gcc/arm-none-eabi/14.3.1/../../../../arm-none-eabi/lib/thumb/v6-m/nofp\libg_nano.a(libc_a-memmove.o)
 .debug_frame   0x00002ec4       0x2c D:/Program Files/STM32CubeCLT_1.21.0/GNU-tools-for-STM32/bin/../lib/gcc/arm-none-eabi/14.3.1/../../../../arm-none-eabi/lib/thumb/v6-m/nofp\libg_nano.a(libc_a-sbrkr.o)
 .debug_frame   0x00002ef0       0x20 D:/Program Files/STM32CubeCLT_1.21.0/GNU-tools-for-STM32/bin/../lib/gcc/arm-none-eabi/14.3.1/../../../../arm-none-eabi/lib/thumb/v6-m/nofp\libg_nano.a(libc_a-memchr-stub.o)
 .debug_frame   0x00002f10       0x34 D:/Program Files/STM32CubeCLT_1.21.0/GNU-tools-for-STM32/bin/../lib/gcc/arm-none-eabi/14.3.1/../../../../arm-none-eabi/lib/thumb/v6-m/nofp\libg_nano.a(libc_a-reallocr.o)
 .debug_frame   0x00002f44       0x54 D:/Program Files/STM32CubeCLT_1.21.0/GNU-tools-for-STM32/bin/../lib/gcc/arm-none-eabi/14.3.1/../../../../arm-none-eabi/lib/thumb/v6-m/nofp\libg_nano.a(libc_a-makebuf.o)
 .debug_frame   0x00002f98       0x2c D:/Program Files/STM32CubeCLT_1.21.0/GNU-tools-for-STM32/bin/../lib/gcc/arm-none-eabi/14.3.1/../../../../arm-none-eabi/lib/thumb/v6-m/nofp\libg_nano.a(libc_a-fstatr.o)
 .debug_frame   0x00002fc4       0x2c D:/Program Files/STM32CubeCLT_1.21.0/GNU-tools-for-STM32/bin/../lib/gcc/arm-none-eabi/14.3.1/../../../../arm-none-eabi/lib/thumb/v6-m/nofp\libg_nano.a(libc_a-isattyr.o)
 .debug_frame   0x00002ff0       0x20 D:/Program Files/STM32CubeCLT_1.21.0/GNU-tools-for-STM32/bin/../lib/gcc/arm-none-eabi/14.3.1/../../../../arm-none-eabi/lib/thumb/v6-m/nofp\libg_nano.a(libc_a-msizer.o)
 .debug_frame   0x00003010       0x20 D:/Program Files/STM32CubeCLT_1.21.0/GNU-tools-for-STM32/bin/../lib/gcc/arm-none-eabi/14.3.1/thumb/v6-m/nofp\libgcc.a(_divsi3.o)
 .debug_frame   0x00003030       0x20 D:/Program Files/STM32CubeCLT_1.21.0/GNU-tools-for-STM32/bin/../lib/gcc/arm-none-eabi/14.3.1/../../../../arm-none-eabi/lib/thumb/v6-m/nofp\libnosys.a(sbrk.o)

.debug_loclists
                0x00000000     0xa033
 .debug_loclists
                0x00000000      0x106 CMakeFiles/MSPM0G3507_BASIC.elf.dir/app/syscalls_stub.c.obj
 .debug_loclists
                0x00000106      0x8ae CMakeFiles/MSPM0G3507_BASIC.elf.dir/syscfg/ti_msp_dl_config.c.obj
 .debug_loclists
                0x000009b4      0x8eb CMakeFiles/MSPM0G3507_BASIC.elf.dir/D_/tools/ti/mspm0_sdk_2_10_00_04/kernel/freertos/Source/event_groups.c.obj
 .debug_loclists
                0x0000129f       0x6c CMakeFiles/MSPM0G3507_BASIC.elf.dir/D_/tools/ti/mspm0_sdk_2_10_00_04/kernel/freertos/Source/list.c.obj
 .debug_loclists
                0x0000130b     0x1743 CMakeFiles/MSPM0G3507_BASIC.elf.dir/D_/tools/ti/mspm0_sdk_2_10_00_04/kernel/freertos/Source/queue.c.obj
 .debug_loclists
                0x00002a4e     0x169b CMakeFiles/MSPM0G3507_BASIC.elf.dir/D_/tools/ti/mspm0_sdk_2_10_00_04/kernel/freertos/Source/stream_buffer.c.obj
 .debug_loclists
                0x000040e9     0x1df9 CMakeFiles/MSPM0G3507_BASIC.elf.dir/D_/tools/ti/mspm0_sdk_2_10_00_04/kernel/freertos/Source/tasks.c.obj
 .debug_loclists
                0x00005ee2      0xbd8 CMakeFiles/MSPM0G3507_BASIC.elf.dir/D_/tools/ti/mspm0_sdk_2_10_00_04/kernel/freertos/Source/timers.c.obj
 .debug_loclists
                0x00006aba      0x312 CMakeFiles/MSPM0G3507_BASIC.elf.dir/D_/tools/ti/mspm0_sdk_2_10_00_04/kernel/freertos/Source/portable/MemMang/heap_4.c.obj
 .debug_loclists
                0x00006dcc      0x33d CMakeFiles/MSPM0G3507_BASIC.elf.dir/D_/tools/ti/mspm0_sdk_2_10_00_04/kernel/freertos/Source/portable/GCC/ARM_CM0/port.c.obj
 .debug_loclists
                0x00007109       0x6c app/libapp.a(robot.c.obj)
 .debug_loclists
                0x00007175       0x79 bsp/libbsp.a(bsp_dwt.c.obj)
 .debug_loclists
                0x000071ee       0xed bsp/libbsp.a(bsp_log.c.obj)
 .debug_loclists
                0x000072db      0x2c8 D:/Program Files/STM32CubeCLT_1.21.0/GNU-tools-for-STM32/bin/../lib/gcc/arm-none-eabi/14.3.1/../../../../arm-none-eabi/lib/thumb/v6-m/nofp\libg_nano.a(libc_a-findfp.o)
 .debug_loclists
                0x000075a3       0xb6 D:/Program Files/STM32CubeCLT_1.21.0/GNU-tools-for-STM32/bin/../lib/gcc/arm-none-eabi/14.3.1/../../../../arm-none-eabi/lib/thumb/v6-m/nofp\libg_nano.a(libc_a-fwalk.o)
 .debug_loclists
                0x00007659       0x92 D:/Program Files/STM32CubeCLT_1.21.0/GNU-tools-for-STM32/bin/../lib/gcc/arm-none-eabi/14.3.1/../../../../arm-none-eabi/lib/thumb/v6-m/nofp\libg_nano.a(libc_a-sprintf.o)
 .debug_loclists
                0x000076eb      0x2af D:/Program Files/STM32CubeCLT_1.21.0/GNU-tools-for-STM32/bin/../lib/gcc/arm-none-eabi/14.3.1/../../../../arm-none-eabi/lib/thumb/v6-m/nofp\libg_nano.a(libc_a-stdio.o)
 .debug_loclists
                0x0000799a       0x92 D:/Program Files/STM32CubeCLT_1.21.0/GNU-tools-for-STM32/bin/../lib/gcc/arm-none-eabi/14.3.1/../../../../arm-none-eabi/lib/thumb/v6-m/nofp\libg_nano.a(libc_a-vprintf.o)
 .debug_loclists
                0x00007a2c       0x80 D:/Program Files/STM32CubeCLT_1.21.0/GNU-tools-for-STM32/bin/../lib/gcc/arm-none-eabi/14.3.1/../../../../arm-none-eabi/lib/thumb/v6-m/nofp\libg_nano.a(libc_a-memset.o)
 .debug_loclists
                0x00007aac       0x58 D:/Program Files/STM32CubeCLT_1.21.0/GNU-tools-for-STM32/bin/../lib/gcc/arm-none-eabi/14.3.1/../../../../arm-none-eabi/lib/thumb/v6-m/nofp\libg_nano.a(libc_a-closer.o)
 .debug_loclists
                0x00007b04       0x78 D:/Program Files/STM32CubeCLT_1.21.0/GNU-tools-for-STM32/bin/../lib/gcc/arm-none-eabi/14.3.1/../../../../arm-none-eabi/lib/thumb/v6-m/nofp\libg_nano.a(libc_a-reent.o)
 .debug_loclists
                0x00007b7c       0xa7 D:/Program Files/STM32CubeCLT_1.21.0/GNU-tools-for-STM32/bin/../lib/gcc/arm-none-eabi/14.3.1/../../../../arm-none-eabi/lib/thumb/v6-m/nofp\libg_nano.a(libc_a-lseekr.o)
 .debug_loclists
                0x00007c23       0xa7 D:/Program Files/STM32CubeCLT_1.21.0/GNU-tools-for-STM32/bin/../lib/gcc/arm-none-eabi/14.3.1/../../../../arm-none-eabi/lib/thumb/v6-m/nofp\libg_nano.a(libc_a-readr.o)
 .debug_loclists
                0x00007cca       0xa7 D:/Program Files/STM32CubeCLT_1.21.0/GNU-tools-for-STM32/bin/../lib/gcc/arm-none-eabi/14.3.1/../../../../arm-none-eabi/lib/thumb/v6-m/nofp\libg_nano.a(libc_a-writer.o)
 .debug_loclists
                0x00007d71       0x5b D:/Program Files/STM32CubeCLT_1.21.0/GNU-tools-for-STM32/bin/../lib/gcc/arm-none-eabi/14.3.1/../../../../arm-none-eabi/lib/thumb/v6-m/nofp\libg_nano.a(libc_a-init.o)
 .debug_loclists
                0x00007dcc       0x29 D:/Program Files/STM32CubeCLT_1.21.0/GNU-tools-for-STM32/bin/../lib/gcc/arm-none-eabi/14.3.1/../../../../arm-none-eabi/lib/thumb/v6-m/nofp\libg_nano.a(libc_a-lock.o)
 .debug_loclists
                0x00007df5       0xaf D:/Program Files/STM32CubeCLT_1.21.0/GNU-tools-for-STM32/bin/../lib/gcc/arm-none-eabi/14.3.1/../../../../arm-none-eabi/lib/thumb/v6-m/nofp\libg_nano.a(libc_a-memcpy-stub.o)
 .debug_loclists
                0x00007ea4       0xc8 D:/Program Files/STM32CubeCLT_1.21.0/GNU-tools-for-STM32/bin/../lib/gcc/arm-none-eabi/14.3.1/../../../../arm-none-eabi/lib/thumb/v6-m/nofp\libg_nano.a(libc_a-freer.o)
 .debug_loclists
                0x00007f6c      0x288 D:/Program Files/STM32CubeCLT_1.21.0/GNU-tools-for-STM32/bin/../lib/gcc/arm-none-eabi/14.3.1/../../../../arm-none-eabi/lib/thumb/v6-m/nofp\libg_nano.a(libc_a-mallocr.o)
 .debug_loclists
                0x000081f4       0x46 D:/Program Files/STM32CubeCLT_1.21.0/GNU-tools-for-STM32/bin/../lib/gcc/arm-none-eabi/14.3.1/../../../../arm-none-eabi/lib/thumb/v6-m/nofp\libg_nano.a(libc_a-mlock.o)
 .debug_loclists
                0x0000823a      0x64a D:/Program Files/STM32CubeCLT_1.21.0/GNU-tools-for-STM32/bin/../lib/gcc/arm-none-eabi/14.3.1/../../../../arm-none-eabi/lib/thumb/v6-m/nofp\libg_nano.a(libc_a-nano-svfprintf.o)
 .debug_loclists
                0x00008884      0x4b9 D:/Program Files/STM32CubeCLT_1.21.0/GNU-tools-for-STM32/bin/../lib/gcc/arm-none-eabi/14.3.1/../../../../arm-none-eabi/lib/thumb/v6-m/nofp\libg_nano.a(libc_a-nano-vfprintf.o)
 .debug_loclists
                0x00008d3d      0x4b3 D:/Program Files/STM32CubeCLT_1.21.0/GNU-tools-for-STM32/bin/../lib/gcc/arm-none-eabi/14.3.1/../../../../arm-none-eabi/lib/thumb/v6-m/nofp\libg_nano.a(libc_a-nano-vfprintf_i.o)
 .debug_loclists
                0x000091f0      0x240 D:/Program Files/STM32CubeCLT_1.21.0/GNU-tools-for-STM32/bin/../lib/gcc/arm-none-eabi/14.3.1/../../../../arm-none-eabi/lib/thumb/v6-m/nofp\libg_nano.a(libc_a-fflush.o)
 .debug_loclists
                0x00009430      0x459 D:/Program Files/STM32CubeCLT_1.21.0/GNU-tools-for-STM32/bin/../lib/gcc/arm-none-eabi/14.3.1/../../../../arm-none-eabi/lib/thumb/v6-m/nofp\libg_nano.a(libc_a-fvwrite.o)
 .debug_loclists
                0x00009889      0x11f D:/Program Files/STM32CubeCLT_1.21.0/GNU-tools-for-STM32/bin/../lib/gcc/arm-none-eabi/14.3.1/../../../../arm-none-eabi/lib/thumb/v6-m/nofp\libg_nano.a(libc_a-wbuf.o)
 .debug_loclists
                0x000099a8       0x6f D:/Program Files/STM32CubeCLT_1.21.0/GNU-tools-for-STM32/bin/../lib/gcc/arm-none-eabi/14.3.1/../../../../arm-none-eabi/lib/thumb/v6-m/nofp\libg_nano.a(libc_a-wsetup.o)
 .debug_loclists
                0x00009a17       0xc7 D:/Program Files/STM32CubeCLT_1.21.0/GNU-tools-for-STM32/bin/../lib/gcc/arm-none-eabi/14.3.1/../../../../arm-none-eabi/lib/thumb/v6-m/nofp\libg_nano.a(libc_a-memmove.o)
 .debug_loclists
                0x00009ade       0x58 D:/Program Files/STM32CubeCLT_1.21.0/GNU-tools-for-STM32/bin/../lib/gcc/arm-none-eabi/14.3.1/../../../../arm-none-eabi/lib/thumb/v6-m/nofp\libg_nano.a(libc_a-sbrkr.o)
 .debug_loclists
                0x00009b36       0x9d D:/Program Files/STM32CubeCLT_1.21.0/GNU-tools-for-STM32/bin/../lib/gcc/arm-none-eabi/14.3.1/../../../../arm-none-eabi/lib/thumb/v6-m/nofp\libg_nano.a(libc_a-memchr-stub.o)
 .debug_loclists
                0x00009bd3      0x194 D:/Program Files/STM32CubeCLT_1.21.0/GNU-tools-for-STM32/bin/../lib/gcc/arm-none-eabi/14.3.1/../../../../arm-none-eabi/lib/thumb/v6-m/nofp\libg_nano.a(libc_a-reallocr.o)
 .debug_loclists
                0x00009d67      0x18f D:/Program Files/STM32CubeCLT_1.21.0/GNU-tools-for-STM32/bin/../lib/gcc/arm-none-eabi/14.3.1/../../../../arm-none-eabi/lib/thumb/v6-m/nofp\libg_nano.a(libc_a-makebuf.o)
 .debug_loclists
                0x00009ef6       0x7c D:/Program Files/STM32CubeCLT_1.21.0/GNU-tools-for-STM32/bin/../lib/gcc/arm-none-eabi/14.3.1/../../../../arm-none-eabi/lib/thumb/v6-m/nofp\libg_nano.a(libc_a-fstatr.o)
 .debug_loclists
                0x00009f72       0x58 D:/Program Files/STM32CubeCLT_1.21.0/GNU-tools-for-STM32/bin/../lib/gcc/arm-none-eabi/14.3.1/../../../../arm-none-eabi/lib/thumb/v6-m/nofp\libg_nano.a(libc_a-isattyr.o)
 .debug_loclists
                0x00009fca       0x69 D:/Program Files/STM32CubeCLT_1.21.0/GNU-tools-for-STM32/bin/../lib/gcc/arm-none-eabi/14.3.1/../../../../arm-none-eabi/lib/thumb/v6-m/nofp\libg_nano.a(libc_a-msizer.o)

.debug_loc      0x00000000     0x49fb
 .debug_loc     0x00000000      0x134 D:/tools/ti/mspm0_sdk_2_10_00_04/source/ti/driverlib/lib/gcc/m0p/mspm0g1x0x_g3x0x/driverlib.a(dl_adc12.o)
 .debug_loc     0x00000134      0x473 D:/tools/ti/mspm0_sdk_2_10_00_04/source/ti/driverlib/lib/gcc/m0p/mspm0g1x0x_g3x0x/driverlib.a(dl_i2c.o)
 .debug_loc     0x000005a7      0x869 D:/tools/ti/mspm0_sdk_2_10_00_04/source/ti/driverlib/lib/gcc/m0p/mspm0g1x0x_g3x0x/driverlib.a(dl_spi.o)
 .debug_loc     0x00000e10     0x3114 D:/tools/ti/mspm0_sdk_2_10_00_04/source/ti/driverlib/lib/gcc/m0p/mspm0g1x0x_g3x0x/driverlib.a(dl_timer.o)
 .debug_loc     0x00003f24      0xad7 D:/tools/ti/mspm0_sdk_2_10_00_04/source/ti/driverlib/lib/gcc/m0p/mspm0g1x0x_g3x0x/driverlib.a(dl_uart.o)

.debug_ranges   0x00000000     0x14a0
 .debug_ranges  0x00000000       0x40 D:/tools/ti/mspm0_sdk_2_10_00_04/source/ti/driverlib/lib/gcc/m0p/mspm0g1x0x_g3x0x/driverlib.a(dl_adc12.o)
 .debug_ranges  0x00000040       0x10 D:/tools/ti/mspm0_sdk_2_10_00_04/source/ti/driverlib/lib/gcc/m0p/mspm0g1x0x_g3x0x/driverlib.a(dl_common.o)
 .debug_ranges  0x00000050      0x318 D:/tools/ti/mspm0_sdk_2_10_00_04/source/ti/driverlib/lib/gcc/m0p/mspm0g1x0x_g3x0x/driverlib.a(dl_i2c.o)
 .debug_ranges  0x00000368      0x4f8 D:/tools/ti/mspm0_sdk_2_10_00_04/source/ti/driverlib/lib/gcc/m0p/mspm0g1x0x_g3x0x/driverlib.a(dl_spi.o)
 .debug_ranges  0x00000860      0x8b0 D:/tools/ti/mspm0_sdk_2_10_00_04/source/ti/driverlib/lib/gcc/m0p/mspm0g1x0x_g3x0x/driverlib.a(dl_timer.o)
 .debug_ranges  0x00001110      0x390 D:/tools/ti/mspm0_sdk_2_10_00_04/source/ti/driverlib/lib/gcc/m0p/mspm0g1x0x_g3x0x/driverlib.a(dl_uart.o)
